
SENPROJ.elf:     file format elf32-littlearm

Sections:
Idx Name          Size      VMA       LMA       File off  Algn
  0 .isr_vector   000001c4  08000000  08000000  00010000  2**0
                  CONTENTS, ALLOC, LOAD, READONLY, DATA
  1 .text         00002eb4  080001d0  080001d0  000101d0  2**4
                  CONTENTS, ALLOC, LOAD, READONLY, CODE
  2 .rodata       000001f8  08003084  08003084  00013084  2**0
                  CONTENTS, ALLOC, LOAD, READONLY, DATA
  3 .ARM          00000008  0800327c  0800327c  0001327c  2**2
                  CONTENTS, ALLOC, LOAD, READONLY, DATA
  4 .init_array   00000004  08003284  08003284  00013284  2**2
                  CONTENTS, ALLOC, LOAD, DATA
  5 .fini_array   00000004  08003288  08003288  00013288  2**2
                  CONTENTS, ALLOC, LOAD, DATA
  6 .data         00000070  20000000  0800328c  00020000  2**2
                  CONTENTS, ALLOC, LOAD, DATA
  7 .bss          00000158  20000070  080032fc  00020070  2**2
                  ALLOC
  8 ._user_heap_stack 00000600  200001c8  080032fc  000201c8  2**0
                  ALLOC
  9 .ARM.attributes 00000030  00000000  00000000  00020070  2**0
                  CONTENTS, READONLY
 10 .debug_info   000144bd  00000000  00000000  000200a0  2**0
                  CONTENTS, READONLY, DEBUGGING
 11 .debug_abbrev 00002828  00000000  00000000  0003455d  2**0
                  CONTENTS, READONLY, DEBUGGING
 12 .debug_loc    000062b2  00000000  00000000  00036d85  2**0
                  CONTENTS, READONLY, DEBUGGING
 13 .debug_aranges 00000830  00000000  00000000  0003d038  2**3
                  CONTENTS, READONLY, DEBUGGING
 14 .debug_ranges 00000b78  00000000  00000000  0003d868  2**3
                  CONTENTS, READONLY, DEBUGGING
 15 .debug_line   00005fe9  00000000  00000000  0003e3e0  2**0
                  CONTENTS, READONLY, DEBUGGING
 16 .debug_str    00003725  00000000  00000000  000443c9  2**0
                  CONTENTS, READONLY, DEBUGGING
 17 .comment      0000007c  00000000  00000000  00047aee  2**0
                  CONTENTS, READONLY
 18 .debug_frame  00001b78  00000000  00000000  00047b6c  2**2
                  CONTENTS, READONLY, DEBUGGING

Disassembly of section .text:

080001d0 <__do_global_dtors_aux>:
 80001d0:	b510      	push	{r4, lr}
 80001d2:	4c05      	ldr	r4, [pc, #20]	; (80001e8 <__do_global_dtors_aux+0x18>)
 80001d4:	7823      	ldrb	r3, [r4, #0]
 80001d6:	b933      	cbnz	r3, 80001e6 <__do_global_dtors_aux+0x16>
 80001d8:	4b04      	ldr	r3, [pc, #16]	; (80001ec <__do_global_dtors_aux+0x1c>)
 80001da:	b113      	cbz	r3, 80001e2 <__do_global_dtors_aux+0x12>
 80001dc:	4804      	ldr	r0, [pc, #16]	; (80001f0 <__do_global_dtors_aux+0x20>)
 80001de:	f3af 8000 	nop.w
 80001e2:	2301      	movs	r3, #1
 80001e4:	7023      	strb	r3, [r4, #0]
 80001e6:	bd10      	pop	{r4, pc}
 80001e8:	20000070 	.word	0x20000070
 80001ec:	00000000 	.word	0x00000000
 80001f0:	0800306c 	.word	0x0800306c

080001f4 <frame_dummy>:
 80001f4:	b508      	push	{r3, lr}
 80001f6:	4b03      	ldr	r3, [pc, #12]	; (8000204 <frame_dummy+0x10>)
 80001f8:	b11b      	cbz	r3, 8000202 <frame_dummy+0xe>
 80001fa:	4903      	ldr	r1, [pc, #12]	; (8000208 <frame_dummy+0x14>)
 80001fc:	4803      	ldr	r0, [pc, #12]	; (800020c <frame_dummy+0x18>)
 80001fe:	f3af 8000 	nop.w
 8000202:	bd08      	pop	{r3, pc}
 8000204:	00000000 	.word	0x00000000
 8000208:	20000074 	.word	0x20000074
 800020c:	0800306c 	.word	0x0800306c

08000210 <memchr>:
 8000210:	f001 01ff 	and.w	r1, r1, #255	; 0xff
 8000214:	2a10      	cmp	r2, #16
 8000216:	db2b      	blt.n	8000270 <memchr+0x60>
 8000218:	f010 0f07 	tst.w	r0, #7
 800021c:	d008      	beq.n	8000230 <memchr+0x20>
 800021e:	f810 3b01 	ldrb.w	r3, [r0], #1
 8000222:	3a01      	subs	r2, #1
 8000224:	428b      	cmp	r3, r1
 8000226:	d02d      	beq.n	8000284 <memchr+0x74>
 8000228:	f010 0f07 	tst.w	r0, #7
 800022c:	b342      	cbz	r2, 8000280 <memchr+0x70>
 800022e:	d1f6      	bne.n	800021e <memchr+0xe>
 8000230:	b4f0      	push	{r4, r5, r6, r7}
 8000232:	ea41 2101 	orr.w	r1, r1, r1, lsl #8
 8000236:	ea41 4101 	orr.w	r1, r1, r1, lsl #16
 800023a:	f022 0407 	bic.w	r4, r2, #7
 800023e:	f07f 0700 	mvns.w	r7, #0
 8000242:	2300      	movs	r3, #0
 8000244:	e8f0 5602 	ldrd	r5, r6, [r0], #8
 8000248:	3c08      	subs	r4, #8
 800024a:	ea85 0501 	eor.w	r5, r5, r1
 800024e:	ea86 0601 	eor.w	r6, r6, r1
 8000252:	fa85 f547 	uadd8	r5, r5, r7
 8000256:	faa3 f587 	sel	r5, r3, r7
 800025a:	fa86 f647 	uadd8	r6, r6, r7
 800025e:	faa5 f687 	sel	r6, r5, r7
 8000262:	b98e      	cbnz	r6, 8000288 <memchr+0x78>
 8000264:	d1ee      	bne.n	8000244 <memchr+0x34>
 8000266:	bcf0      	pop	{r4, r5, r6, r7}
 8000268:	f001 01ff 	and.w	r1, r1, #255	; 0xff
 800026c:	f002 0207 	and.w	r2, r2, #7
 8000270:	b132      	cbz	r2, 8000280 <memchr+0x70>
 8000272:	f810 3b01 	ldrb.w	r3, [r0], #1
 8000276:	3a01      	subs	r2, #1
 8000278:	ea83 0301 	eor.w	r3, r3, r1
 800027c:	b113      	cbz	r3, 8000284 <memchr+0x74>
 800027e:	d1f8      	bne.n	8000272 <memchr+0x62>
 8000280:	2000      	movs	r0, #0
 8000282:	4770      	bx	lr
 8000284:	3801      	subs	r0, #1
 8000286:	4770      	bx	lr
 8000288:	2d00      	cmp	r5, #0
 800028a:	bf06      	itte	eq
 800028c:	4635      	moveq	r5, r6
 800028e:	3803      	subeq	r0, #3
 8000290:	3807      	subne	r0, #7
 8000292:	f015 0f01 	tst.w	r5, #1
 8000296:	d107      	bne.n	80002a8 <memchr+0x98>
 8000298:	3001      	adds	r0, #1
 800029a:	f415 7f80 	tst.w	r5, #256	; 0x100
 800029e:	bf02      	ittt	eq
 80002a0:	3001      	addeq	r0, #1
 80002a2:	f415 3fc0 	tsteq.w	r5, #98304	; 0x18000
 80002a6:	3001      	addeq	r0, #1
 80002a8:	bcf0      	pop	{r4, r5, r6, r7}
 80002aa:	3801      	subs	r0, #1
 80002ac:	4770      	bx	lr
 80002ae:	bf00      	nop

080002b0 <__aeabi_uldivmod>:
 80002b0:	b953      	cbnz	r3, 80002c8 <__aeabi_uldivmod+0x18>
 80002b2:	b94a      	cbnz	r2, 80002c8 <__aeabi_uldivmod+0x18>
 80002b4:	2900      	cmp	r1, #0
 80002b6:	bf08      	it	eq
 80002b8:	2800      	cmpeq	r0, #0
 80002ba:	bf1c      	itt	ne
 80002bc:	f04f 31ff 	movne.w	r1, #4294967295	; 0xffffffff
 80002c0:	f04f 30ff 	movne.w	r0, #4294967295	; 0xffffffff
 80002c4:	f000 b97a 	b.w	80005bc <__aeabi_idiv0>
 80002c8:	f1ad 0c08 	sub.w	ip, sp, #8
 80002cc:	e96d ce04 	strd	ip, lr, [sp, #-16]!
 80002d0:	f000 f806 	bl	80002e0 <__udivmoddi4>
 80002d4:	f8dd e004 	ldr.w	lr, [sp, #4]
 80002d8:	e9dd 2302 	ldrd	r2, r3, [sp, #8]
 80002dc:	b004      	add	sp, #16
 80002de:	4770      	bx	lr

080002e0 <__udivmoddi4>:
 80002e0:	e92d 47f0 	stmdb	sp!, {r4, r5, r6, r7, r8, r9, sl, lr}
 80002e4:	468c      	mov	ip, r1
 80002e6:	460d      	mov	r5, r1
 80002e8:	4604      	mov	r4, r0
 80002ea:	9e08      	ldr	r6, [sp, #32]
 80002ec:	2b00      	cmp	r3, #0
 80002ee:	d151      	bne.n	8000394 <__udivmoddi4+0xb4>
 80002f0:	428a      	cmp	r2, r1
 80002f2:	4617      	mov	r7, r2
 80002f4:	d96d      	bls.n	80003d2 <__udivmoddi4+0xf2>
 80002f6:	fab2 fe82 	clz	lr, r2
 80002fa:	f1be 0f00 	cmp.w	lr, #0
 80002fe:	d00b      	beq.n	8000318 <__udivmoddi4+0x38>
 8000300:	f1ce 0c20 	rsb	ip, lr, #32
 8000304:	fa01 f50e 	lsl.w	r5, r1, lr
 8000308:	fa20 fc0c 	lsr.w	ip, r0, ip
 800030c:	fa02 f70e 	lsl.w	r7, r2, lr
 8000310:	ea4c 0c05 	orr.w	ip, ip, r5
 8000314:	fa00 f40e 	lsl.w	r4, r0, lr
 8000318:	ea4f 4a17 	mov.w	sl, r7, lsr #16
 800031c:	0c25      	lsrs	r5, r4, #16
 800031e:	fbbc f8fa 	udiv	r8, ip, sl
 8000322:	fa1f f987 	uxth.w	r9, r7
 8000326:	fb0a cc18 	mls	ip, sl, r8, ip
 800032a:	ea45 450c 	orr.w	r5, r5, ip, lsl #16
 800032e:	fb08 f309 	mul.w	r3, r8, r9
 8000332:	42ab      	cmp	r3, r5
 8000334:	d90a      	bls.n	800034c <__udivmoddi4+0x6c>
 8000336:	19ed      	adds	r5, r5, r7
 8000338:	f108 32ff 	add.w	r2, r8, #4294967295	; 0xffffffff
 800033c:	f080 8123 	bcs.w	8000586 <__udivmoddi4+0x2a6>
 8000340:	42ab      	cmp	r3, r5
 8000342:	f240 8120 	bls.w	8000586 <__udivmoddi4+0x2a6>
 8000346:	f1a8 0802 	sub.w	r8, r8, #2
 800034a:	443d      	add	r5, r7
 800034c:	1aed      	subs	r5, r5, r3
 800034e:	b2a4      	uxth	r4, r4
 8000350:	fbb5 f0fa 	udiv	r0, r5, sl
 8000354:	fb0a 5510 	mls	r5, sl, r0, r5
 8000358:	ea44 4405 	orr.w	r4, r4, r5, lsl #16
 800035c:	fb00 f909 	mul.w	r9, r0, r9
 8000360:	45a1      	cmp	r9, r4
 8000362:	d909      	bls.n	8000378 <__udivmoddi4+0x98>
 8000364:	19e4      	adds	r4, r4, r7
 8000366:	f100 33ff 	add.w	r3, r0, #4294967295	; 0xffffffff
 800036a:	f080 810a 	bcs.w	8000582 <__udivmoddi4+0x2a2>
 800036e:	45a1      	cmp	r9, r4
 8000370:	f240 8107 	bls.w	8000582 <__udivmoddi4+0x2a2>
 8000374:	3802      	subs	r0, #2
 8000376:	443c      	add	r4, r7
 8000378:	eba4 0409 	sub.w	r4, r4, r9
 800037c:	ea40 4008 	orr.w	r0, r0, r8, lsl #16
 8000380:	2100      	movs	r1, #0
 8000382:	2e00      	cmp	r6, #0
 8000384:	d061      	beq.n	800044a <__udivmoddi4+0x16a>
 8000386:	fa24 f40e 	lsr.w	r4, r4, lr
 800038a:	2300      	movs	r3, #0
 800038c:	6034      	str	r4, [r6, #0]
 800038e:	6073      	str	r3, [r6, #4]
 8000390:	e8bd 87f0 	ldmia.w	sp!, {r4, r5, r6, r7, r8, r9, sl, pc}
 8000394:	428b      	cmp	r3, r1
 8000396:	d907      	bls.n	80003a8 <__udivmoddi4+0xc8>
 8000398:	2e00      	cmp	r6, #0
 800039a:	d054      	beq.n	8000446 <__udivmoddi4+0x166>
 800039c:	2100      	movs	r1, #0
 800039e:	e886 0021 	stmia.w	r6, {r0, r5}
 80003a2:	4608      	mov	r0, r1
 80003a4:	e8bd 87f0 	ldmia.w	sp!, {r4, r5, r6, r7, r8, r9, sl, pc}
 80003a8:	fab3 f183 	clz	r1, r3
 80003ac:	2900      	cmp	r1, #0
 80003ae:	f040 808e 	bne.w	80004ce <__udivmoddi4+0x1ee>
 80003b2:	42ab      	cmp	r3, r5
 80003b4:	d302      	bcc.n	80003bc <__udivmoddi4+0xdc>
 80003b6:	4282      	cmp	r2, r0
 80003b8:	f200 80fa 	bhi.w	80005b0 <__udivmoddi4+0x2d0>
 80003bc:	1a84      	subs	r4, r0, r2
 80003be:	eb65 0503 	sbc.w	r5, r5, r3
 80003c2:	2001      	movs	r0, #1
 80003c4:	46ac      	mov	ip, r5
 80003c6:	2e00      	cmp	r6, #0
 80003c8:	d03f      	beq.n	800044a <__udivmoddi4+0x16a>
 80003ca:	e886 1010 	stmia.w	r6, {r4, ip}
 80003ce:	e8bd 87f0 	ldmia.w	sp!, {r4, r5, r6, r7, r8, r9, sl, pc}
 80003d2:	b912      	cbnz	r2, 80003da <__udivmoddi4+0xfa>
 80003d4:	2701      	movs	r7, #1
 80003d6:	fbb7 f7f2 	udiv	r7, r7, r2
 80003da:	fab7 fe87 	clz	lr, r7
 80003de:	f1be 0f00 	cmp.w	lr, #0
 80003e2:	d134      	bne.n	800044e <__udivmoddi4+0x16e>
 80003e4:	1beb      	subs	r3, r5, r7
 80003e6:	0c3a      	lsrs	r2, r7, #16
 80003e8:	fa1f fc87 	uxth.w	ip, r7
 80003ec:	2101      	movs	r1, #1
 80003ee:	fbb3 f8f2 	udiv	r8, r3, r2
 80003f2:	0c25      	lsrs	r5, r4, #16
 80003f4:	fb02 3318 	mls	r3, r2, r8, r3
 80003f8:	ea45 4503 	orr.w	r5, r5, r3, lsl #16
 80003fc:	fb0c f308 	mul.w	r3, ip, r8
 8000400:	42ab      	cmp	r3, r5
 8000402:	d907      	bls.n	8000414 <__udivmoddi4+0x134>
 8000404:	19ed      	adds	r5, r5, r7
 8000406:	f108 30ff 	add.w	r0, r8, #4294967295	; 0xffffffff
 800040a:	d202      	bcs.n	8000412 <__udivmoddi4+0x132>
 800040c:	42ab      	cmp	r3, r5
 800040e:	f200 80d1 	bhi.w	80005b4 <__udivmoddi4+0x2d4>
 8000412:	4680      	mov	r8, r0
 8000414:	1aed      	subs	r5, r5, r3
 8000416:	b2a3      	uxth	r3, r4
 8000418:	fbb5 f0f2 	udiv	r0, r5, r2
 800041c:	fb02 5510 	mls	r5, r2, r0, r5
 8000420:	ea43 4405 	orr.w	r4, r3, r5, lsl #16
 8000424:	fb0c fc00 	mul.w	ip, ip, r0
 8000428:	45a4      	cmp	ip, r4
 800042a:	d907      	bls.n	800043c <__udivmoddi4+0x15c>
 800042c:	19e4      	adds	r4, r4, r7
 800042e:	f100 33ff 	add.w	r3, r0, #4294967295	; 0xffffffff
 8000432:	d202      	bcs.n	800043a <__udivmoddi4+0x15a>
 8000434:	45a4      	cmp	ip, r4
 8000436:	f200 80b8 	bhi.w	80005aa <__udivmoddi4+0x2ca>
 800043a:	4618      	mov	r0, r3
 800043c:	eba4 040c 	sub.w	r4, r4, ip
 8000440:	ea40 4008 	orr.w	r0, r0, r8, lsl #16
 8000444:	e79d      	b.n	8000382 <__udivmoddi4+0xa2>
 8000446:	4631      	mov	r1, r6
 8000448:	4630      	mov	r0, r6
 800044a:	e8bd 87f0 	ldmia.w	sp!, {r4, r5, r6, r7, r8, r9, sl, pc}
 800044e:	f1ce 0420 	rsb	r4, lr, #32
 8000452:	fa05 f30e 	lsl.w	r3, r5, lr
 8000456:	fa07 f70e 	lsl.w	r7, r7, lr
 800045a:	fa20 f804 	lsr.w	r8, r0, r4
 800045e:	0c3a      	lsrs	r2, r7, #16
 8000460:	fa25 f404 	lsr.w	r4, r5, r4
 8000464:	ea48 0803 	orr.w	r8, r8, r3
 8000468:	fbb4 f1f2 	udiv	r1, r4, r2
 800046c:	ea4f 4518 	mov.w	r5, r8, lsr #16
 8000470:	fb02 4411 	mls	r4, r2, r1, r4
 8000474:	fa1f fc87 	uxth.w	ip, r7
 8000478:	ea45 4504 	orr.w	r5, r5, r4, lsl #16
 800047c:	fb01 f30c 	mul.w	r3, r1, ip
 8000480:	42ab      	cmp	r3, r5
 8000482:	fa00 f40e 	lsl.w	r4, r0, lr
 8000486:	d909      	bls.n	800049c <__udivmoddi4+0x1bc>
 8000488:	19ed      	adds	r5, r5, r7
 800048a:	f101 30ff 	add.w	r0, r1, #4294967295	; 0xffffffff
 800048e:	f080 808a 	bcs.w	80005a6 <__udivmoddi4+0x2c6>
 8000492:	42ab      	cmp	r3, r5
 8000494:	f240 8087 	bls.w	80005a6 <__udivmoddi4+0x2c6>
 8000498:	3902      	subs	r1, #2
 800049a:	443d      	add	r5, r7
 800049c:	1aeb      	subs	r3, r5, r3
 800049e:	fa1f f588 	uxth.w	r5, r8
 80004a2:	fbb3 f0f2 	udiv	r0, r3, r2
 80004a6:	fb02 3310 	mls	r3, r2, r0, r3
 80004aa:	ea45 4503 	orr.w	r5, r5, r3, lsl #16
 80004ae:	fb00 f30c 	mul.w	r3, r0, ip
 80004b2:	42ab      	cmp	r3, r5
 80004b4:	d907      	bls.n	80004c6 <__udivmoddi4+0x1e6>
 80004b6:	19ed      	adds	r5, r5, r7
 80004b8:	f100 38ff 	add.w	r8, r0, #4294967295	; 0xffffffff
 80004bc:	d26f      	bcs.n	800059e <__udivmoddi4+0x2be>
 80004be:	42ab      	cmp	r3, r5
 80004c0:	d96d      	bls.n	800059e <__udivmoddi4+0x2be>
 80004c2:	3802      	subs	r0, #2
 80004c4:	443d      	add	r5, r7
 80004c6:	1aeb      	subs	r3, r5, r3
 80004c8:	ea40 4101 	orr.w	r1, r0, r1, lsl #16
 80004cc:	e78f      	b.n	80003ee <__udivmoddi4+0x10e>
 80004ce:	f1c1 0720 	rsb	r7, r1, #32
 80004d2:	fa22 f807 	lsr.w	r8, r2, r7
 80004d6:	408b      	lsls	r3, r1
 80004d8:	fa05 f401 	lsl.w	r4, r5, r1
 80004dc:	ea48 0303 	orr.w	r3, r8, r3
 80004e0:	fa20 fe07 	lsr.w	lr, r0, r7
 80004e4:	ea4f 4c13 	mov.w	ip, r3, lsr #16
 80004e8:	40fd      	lsrs	r5, r7
 80004ea:	ea4e 0e04 	orr.w	lr, lr, r4
 80004ee:	fbb5 f9fc 	udiv	r9, r5, ip
 80004f2:	ea4f 441e 	mov.w	r4, lr, lsr #16
 80004f6:	fb0c 5519 	mls	r5, ip, r9, r5
 80004fa:	fa1f f883 	uxth.w	r8, r3
 80004fe:	ea44 4505 	orr.w	r5, r4, r5, lsl #16
 8000502:	fb09 f408 	mul.w	r4, r9, r8
 8000506:	42ac      	cmp	r4, r5
 8000508:	fa02 f201 	lsl.w	r2, r2, r1
 800050c:	fa00 fa01 	lsl.w	sl, r0, r1
 8000510:	d908      	bls.n	8000524 <__udivmoddi4+0x244>
 8000512:	18ed      	adds	r5, r5, r3
 8000514:	f109 30ff 	add.w	r0, r9, #4294967295	; 0xffffffff
 8000518:	d243      	bcs.n	80005a2 <__udivmoddi4+0x2c2>
 800051a:	42ac      	cmp	r4, r5
 800051c:	d941      	bls.n	80005a2 <__udivmoddi4+0x2c2>
 800051e:	f1a9 0902 	sub.w	r9, r9, #2
 8000522:	441d      	add	r5, r3
 8000524:	1b2d      	subs	r5, r5, r4
 8000526:	fa1f fe8e 	uxth.w	lr, lr
 800052a:	fbb5 f0fc 	udiv	r0, r5, ip
 800052e:	fb0c 5510 	mls	r5, ip, r0, r5
 8000532:	ea4e 4405 	orr.w	r4, lr, r5, lsl #16
 8000536:	fb00 f808 	mul.w	r8, r0, r8
 800053a:	45a0      	cmp	r8, r4
 800053c:	d907      	bls.n	800054e <__udivmoddi4+0x26e>
 800053e:	18e4      	adds	r4, r4, r3
 8000540:	f100 35ff 	add.w	r5, r0, #4294967295	; 0xffffffff
 8000544:	d229      	bcs.n	800059a <__udivmoddi4+0x2ba>
 8000546:	45a0      	cmp	r8, r4
 8000548:	d927      	bls.n	800059a <__udivmoddi4+0x2ba>
 800054a:	3802      	subs	r0, #2
 800054c:	441c      	add	r4, r3
 800054e:	ea40 4009 	orr.w	r0, r0, r9, lsl #16
 8000552:	eba4 0408 	sub.w	r4, r4, r8
 8000556:	fba0 8902 	umull	r8, r9, r0, r2
 800055a:	454c      	cmp	r4, r9
 800055c:	46c6      	mov	lr, r8
 800055e:	464d      	mov	r5, r9
 8000560:	d315      	bcc.n	800058e <__udivmoddi4+0x2ae>
 8000562:	d012      	beq.n	800058a <__udivmoddi4+0x2aa>
 8000564:	b156      	cbz	r6, 800057c <__udivmoddi4+0x29c>
 8000566:	ebba 030e 	subs.w	r3, sl, lr
 800056a:	eb64 0405 	sbc.w	r4, r4, r5
 800056e:	fa04 f707 	lsl.w	r7, r4, r7
 8000572:	40cb      	lsrs	r3, r1
 8000574:	431f      	orrs	r7, r3
 8000576:	40cc      	lsrs	r4, r1
 8000578:	6037      	str	r7, [r6, #0]
 800057a:	6074      	str	r4, [r6, #4]
 800057c:	2100      	movs	r1, #0
 800057e:	e8bd 87f0 	ldmia.w	sp!, {r4, r5, r6, r7, r8, r9, sl, pc}
 8000582:	4618      	mov	r0, r3
 8000584:	e6f8      	b.n	8000378 <__udivmoddi4+0x98>
 8000586:	4690      	mov	r8, r2
 8000588:	e6e0      	b.n	800034c <__udivmoddi4+0x6c>
 800058a:	45c2      	cmp	sl, r8
 800058c:	d2ea      	bcs.n	8000564 <__udivmoddi4+0x284>
 800058e:	ebb8 0e02 	subs.w	lr, r8, r2
 8000592:	eb69 0503 	sbc.w	r5, r9, r3
 8000596:	3801      	subs	r0, #1
 8000598:	e7e4      	b.n	8000564 <__udivmoddi4+0x284>
 800059a:	4628      	mov	r0, r5
 800059c:	e7d7      	b.n	800054e <__udivmoddi4+0x26e>
 800059e:	4640      	mov	r0, r8
 80005a0:	e791      	b.n	80004c6 <__udivmoddi4+0x1e6>
 80005a2:	4681      	mov	r9, r0
 80005a4:	e7be      	b.n	8000524 <__udivmoddi4+0x244>
 80005a6:	4601      	mov	r1, r0
 80005a8:	e778      	b.n	800049c <__udivmoddi4+0x1bc>
 80005aa:	3802      	subs	r0, #2
 80005ac:	443c      	add	r4, r7
 80005ae:	e745      	b.n	800043c <__udivmoddi4+0x15c>
 80005b0:	4608      	mov	r0, r1
 80005b2:	e708      	b.n	80003c6 <__udivmoddi4+0xe6>
 80005b4:	f1a8 0802 	sub.w	r8, r8, #2
 80005b8:	443d      	add	r5, r7
 80005ba:	e72b      	b.n	8000414 <__udivmoddi4+0x134>

080005bc <__aeabi_idiv0>:
 80005bc:	4770      	bx	lr
 80005be:	bf00      	nop

080005c0 <HAL_InitTick>:
  *       implementation  in user file.
  * @param TickPriority Tick interrupt priority.
  * @retval HAL status
  */
__weak HAL_StatusTypeDef HAL_InitTick(uint32_t TickPriority)
{
 80005c0:	b538      	push	{r3, r4, r5, lr}
  /* Configure the SysTick to have interrupt in 1ms time basis*/
  if (HAL_SYSTICK_Config(SystemCoreClock / (1000U / uwTickFreq)) > 0U)
 80005c2:	4a0e      	ldr	r2, [pc, #56]	; (80005fc <HAL_InitTick+0x3c>)
 80005c4:	4b0e      	ldr	r3, [pc, #56]	; (8000600 <HAL_InitTick+0x40>)
{
 80005c6:	4605      	mov	r5, r0
  if (HAL_SYSTICK_Config(SystemCoreClock / (1000U / uwTickFreq)) > 0U)
 80005c8:	7818      	ldrb	r0, [r3, #0]
 80005ca:	f44f 737a 	mov.w	r3, #1000	; 0x3e8
 80005ce:	fbb3 f3f0 	udiv	r3, r3, r0
 80005d2:	6810      	ldr	r0, [r2, #0]
 80005d4:	fbb0 f0f3 	udiv	r0, r0, r3
 80005d8:	f000 f8cc 	bl	8000774 <HAL_SYSTICK_Config>
 80005dc:	4604      	mov	r4, r0
 80005de:	b958      	cbnz	r0, 80005f8 <HAL_InitTick+0x38>
  {
    return HAL_ERROR;
  }

  /* Configure the SysTick IRQ priority */
  if (TickPriority < (1UL << __NVIC_PRIO_BITS))
 80005e0:	2d0f      	cmp	r5, #15
 80005e2:	d809      	bhi.n	80005f8 <HAL_InitTick+0x38>
  {
    HAL_NVIC_SetPriority(SysTick_IRQn, TickPriority, 0U);
 80005e4:	4602      	mov	r2, r0
 80005e6:	4629      	mov	r1, r5
 80005e8:	f04f 30ff 	mov.w	r0, #4294967295	; 0xffffffff
 80005ec:	f000 f86a 	bl	80006c4 <HAL_NVIC_SetPriority>
    uwTickPrio = TickPriority;
 80005f0:	4b04      	ldr	r3, [pc, #16]	; (8000604 <HAL_InitTick+0x44>)
 80005f2:	4620      	mov	r0, r4
 80005f4:	601d      	str	r5, [r3, #0]
 80005f6:	bd38      	pop	{r3, r4, r5, pc}
    return HAL_ERROR;
 80005f8:	2001      	movs	r0, #1
    return HAL_ERROR;
  }

  /* Return function status */
  return HAL_OK;
}
 80005fa:	bd38      	pop	{r3, r4, r5, pc}
 80005fc:	20000008 	.word	0x20000008
 8000600:	20000000 	.word	0x20000000
 8000604:	20000004 	.word	0x20000004

08000608 <HAL_Init>:
{
 8000608:	b508      	push	{r3, lr}
  __HAL_FLASH_INSTRUCTION_CACHE_ENABLE();
 800060a:	4b0b      	ldr	r3, [pc, #44]	; (8000638 <HAL_Init+0x30>)
 800060c:	681a      	ldr	r2, [r3, #0]
 800060e:	f442 7200 	orr.w	r2, r2, #512	; 0x200
 8000612:	601a      	str	r2, [r3, #0]
  __HAL_FLASH_DATA_CACHE_ENABLE();
 8000614:	681a      	ldr	r2, [r3, #0]
 8000616:	f442 6280 	orr.w	r2, r2, #1024	; 0x400
 800061a:	601a      	str	r2, [r3, #0]
  __HAL_FLASH_PREFETCH_BUFFER_ENABLE();
 800061c:	681a      	ldr	r2, [r3, #0]
 800061e:	f442 7280 	orr.w	r2, r2, #256	; 0x100
 8000622:	601a      	str	r2, [r3, #0]
  HAL_NVIC_SetPriorityGrouping(NVIC_PRIORITYGROUP_4);
 8000624:	2003      	movs	r0, #3
 8000626:	f000 f82f 	bl	8000688 <HAL_NVIC_SetPriorityGrouping>
  HAL_InitTick(TICK_INT_PRIORITY);
 800062a:	2000      	movs	r0, #0
 800062c:	f7ff ffc8 	bl	80005c0 <HAL_InitTick>
  HAL_MspInit();
 8000630:	f001 ff64 	bl	80024fc <HAL_MspInit>
}
 8000634:	2000      	movs	r0, #0
 8000636:	bd08      	pop	{r3, pc}
 8000638:	40023c00 	.word	0x40023c00

0800063c <HAL_IncTick>:
  *      implementations in user file.
  * @retval None
  */
__weak void HAL_IncTick(void)
{
  uwTick += uwTickFreq;
 800063c:	4a03      	ldr	r2, [pc, #12]	; (800064c <HAL_IncTick+0x10>)
 800063e:	4b04      	ldr	r3, [pc, #16]	; (8000650 <HAL_IncTick+0x14>)
 8000640:	6811      	ldr	r1, [r2, #0]
 8000642:	781b      	ldrb	r3, [r3, #0]
 8000644:	440b      	add	r3, r1
 8000646:	6013      	str	r3, [r2, #0]
 8000648:	4770      	bx	lr
 800064a:	bf00      	nop
 800064c:	200000ac 	.word	0x200000ac
 8000650:	20000000 	.word	0x20000000

08000654 <HAL_GetTick>:
  *       implementations in user file.
  * @retval tick value
  */
__weak uint32_t HAL_GetTick(void)
{
  return uwTick;
 8000654:	4b01      	ldr	r3, [pc, #4]	; (800065c <HAL_GetTick+0x8>)
 8000656:	6818      	ldr	r0, [r3, #0]
}
 8000658:	4770      	bx	lr
 800065a:	bf00      	nop
 800065c:	200000ac 	.word	0x200000ac

08000660 <HAL_Delay>:
  *       implementations in user file.
  * @param Delay specifies the delay time length, in milliseconds.
  * @retval None
  */
__weak void HAL_Delay(uint32_t Delay)
{
 8000660:	b538      	push	{r3, r4, r5, lr}
 8000662:	4604      	mov	r4, r0
  uint32_t tickstart = HAL_GetTick();
 8000664:	f7ff fff6 	bl	8000654 <HAL_GetTick>
  uint32_t wait = Delay;

  /* Add a freq to guarantee minimum wait */
  if (wait < HAL_MAX_DELAY)
 8000668:	1c63      	adds	r3, r4, #1
  {
    wait += (uint32_t)(uwTickFreq);
 800066a:	bf1c      	itt	ne
 800066c:	4b05      	ldrne	r3, [pc, #20]	; (8000684 <HAL_Delay+0x24>)
 800066e:	781b      	ldrbne	r3, [r3, #0]
  uint32_t tickstart = HAL_GetTick();
 8000670:	4605      	mov	r5, r0
    wait += (uint32_t)(uwTickFreq);
 8000672:	bf18      	it	ne
 8000674:	18e4      	addne	r4, r4, r3
  }

  while((HAL_GetTick() - tickstart) < wait)
 8000676:	f7ff ffed 	bl	8000654 <HAL_GetTick>
 800067a:	1b40      	subs	r0, r0, r5
 800067c:	4284      	cmp	r4, r0
 800067e:	d8fa      	bhi.n	8000676 <HAL_Delay+0x16>
  {
  }
}
 8000680:	bd38      	pop	{r3, r4, r5, pc}
 8000682:	bf00      	nop
 8000684:	20000000 	.word	0x20000000

08000688 <HAL_NVIC_SetPriorityGrouping>:
  * @retval None
  */
void HAL_NVIC_SetPriorityGrouping(uint32_t PriorityGroup)
{
  /* Check the parameters */
  assert_param(IS_NVIC_PRIORITY_GROUP(PriorityGroup));
 8000688:	1ec3      	subs	r3, r0, #3
 800068a:	2b04      	cmp	r3, #4
{
 800068c:	b510      	push	{r4, lr}
 800068e:	4604      	mov	r4, r0
  assert_param(IS_NVIC_PRIORITY_GROUP(PriorityGroup));
 8000690:	d903      	bls.n	800069a <HAL_NVIC_SetPriorityGrouping+0x12>
 8000692:	21a2      	movs	r1, #162	; 0xa2
 8000694:	4809      	ldr	r0, [pc, #36]	; (80006bc <HAL_NVIC_SetPriorityGrouping+0x34>)
 8000696:	f001 ff2f 	bl	80024f8 <assert_failed>
__STATIC_INLINE void NVIC_SetPriorityGrouping(uint32_t PriorityGroup)
{
  uint32_t reg_value;
  uint32_t PriorityGroupTmp = (PriorityGroup & (uint32_t)0x07UL);             /* only values 0..7 are used          */

  reg_value  =  SCB->AIRCR;                                                   /* read old register configuration    */
 800069a:	4a09      	ldr	r2, [pc, #36]	; (80006c0 <HAL_NVIC_SetPriorityGrouping+0x38>)
 800069c:	68d3      	ldr	r3, [r2, #12]
  reg_value &= ~((uint32_t)(SCB_AIRCR_VECTKEY_Msk | SCB_AIRCR_PRIGROUP_Msk)); /* clear bits to change               */
 800069e:	f423 63e0 	bic.w	r3, r3, #1792	; 0x700
 80006a2:	041b      	lsls	r3, r3, #16
 80006a4:	0c1b      	lsrs	r3, r3, #16
 80006a6:	f043 63bf 	orr.w	r3, r3, #100139008	; 0x5f80000
  reg_value  =  (reg_value                                   |
                ((uint32_t)0x5FAUL << SCB_AIRCR_VECTKEY_Pos) |
                (PriorityGroupTmp << 8U)                      );              /* Insert write key and priorty group */
 80006aa:	0224      	lsls	r4, r4, #8
 80006ac:	f443 3300 	orr.w	r3, r3, #131072	; 0x20000
 80006b0:	f404 64e0 	and.w	r4, r4, #1792	; 0x700
  reg_value  =  (reg_value                                   |
 80006b4:	431c      	orrs	r4, r3
  SCB->AIRCR =  reg_value;
 80006b6:	60d4      	str	r4, [r2, #12]
 80006b8:	bd10      	pop	{r4, pc}
 80006ba:	bf00      	nop
 80006bc:	08003086 	.word	0x08003086
 80006c0:	e000ed00 	.word	0xe000ed00

080006c4 <HAL_NVIC_SetPriority>:
void HAL_NVIC_SetPriority(IRQn_Type IRQn, uint32_t PreemptPriority, uint32_t SubPriority)
{ 
  uint32_t prioritygroup = 0x00U;
  
  /* Check the parameters */
  assert_param(IS_NVIC_SUB_PRIORITY(SubPriority));
 80006c4:	2a0f      	cmp	r2, #15
{ 
 80006c6:	b570      	push	{r4, r5, r6, lr}
 80006c8:	4604      	mov	r4, r0
 80006ca:	460e      	mov	r6, r1
 80006cc:	4615      	mov	r5, r2
  assert_param(IS_NVIC_SUB_PRIORITY(SubPriority));
 80006ce:	d903      	bls.n	80006d8 <HAL_NVIC_SetPriority+0x14>
 80006d0:	21ba      	movs	r1, #186	; 0xba
 80006d2:	481a      	ldr	r0, [pc, #104]	; (800073c <HAL_NVIC_SetPriority+0x78>)
 80006d4:	f001 ff10 	bl	80024f8 <assert_failed>
  assert_param(IS_NVIC_PREEMPTION_PRIORITY(PreemptPriority));
 80006d8:	2e0f      	cmp	r6, #15
 80006da:	d903      	bls.n	80006e4 <HAL_NVIC_SetPriority+0x20>
 80006dc:	21bb      	movs	r1, #187	; 0xbb
 80006de:	4817      	ldr	r0, [pc, #92]	; (800073c <HAL_NVIC_SetPriority+0x78>)
 80006e0:	f001 ff0a 	bl	80024f8 <assert_failed>
  \details Reads the priority grouping field from the NVIC Interrupt Controller.
  \return                Priority grouping field (SCB->AIRCR [10:8] PRIGROUP field).
 */
__STATIC_INLINE uint32_t NVIC_GetPriorityGrouping(void)
{
  return ((uint32_t)((SCB->AIRCR & SCB_AIRCR_PRIGROUP_Msk) >> SCB_AIRCR_PRIGROUP_Pos));
 80006e4:	4b16      	ldr	r3, [pc, #88]	; (8000740 <HAL_NVIC_SetPriority+0x7c>)
 80006e6:	68d9      	ldr	r1, [r3, #12]
 80006e8:	f3c1 2102 	ubfx	r1, r1, #8, #3
{
  uint32_t PriorityGroupTmp = (PriorityGroup & (uint32_t)0x07UL);   /* only values 0..7 are used          */
  uint32_t PreemptPriorityBits;
  uint32_t SubPriorityBits;

  PreemptPriorityBits = ((7UL - PriorityGroupTmp) > (uint32_t)(__NVIC_PRIO_BITS)) ? (uint32_t)(__NVIC_PRIO_BITS) : (uint32_t)(7UL - PriorityGroupTmp);
 80006ec:	f1c1 0307 	rsb	r3, r1, #7
  SubPriorityBits     = ((PriorityGroupTmp + (uint32_t)(__NVIC_PRIO_BITS)) < (uint32_t)7UL) ? (uint32_t)0UL : (uint32_t)((PriorityGroupTmp - 7UL) + (uint32_t)(__NVIC_PRIO_BITS));
 80006f0:	1d0a      	adds	r2, r1, #4
  PreemptPriorityBits = ((7UL - PriorityGroupTmp) > (uint32_t)(__NVIC_PRIO_BITS)) ? (uint32_t)(__NVIC_PRIO_BITS) : (uint32_t)(7UL - PriorityGroupTmp);
 80006f2:	2b04      	cmp	r3, #4
 80006f4:	bf28      	it	cs
 80006f6:	2304      	movcs	r3, #4

  return (
           ((PreemptPriority & (uint32_t)((1UL << (PreemptPriorityBits)) - 1UL)) << SubPriorityBits) |
 80006f8:	2001      	movs	r0, #1
  SubPriorityBits     = ((PriorityGroupTmp + (uint32_t)(__NVIC_PRIO_BITS)) < (uint32_t)7UL) ? (uint32_t)0UL : (uint32_t)((PriorityGroupTmp - 7UL) + (uint32_t)(__NVIC_PRIO_BITS));
 80006fa:	2a06      	cmp	r2, #6
 80006fc:	bf8c      	ite	hi
 80006fe:	3903      	subhi	r1, #3
 8000700:	2100      	movls	r1, #0
           ((PreemptPriority & (uint32_t)((1UL << (PreemptPriorityBits)) - 1UL)) << SubPriorityBits) |
 8000702:	fa00 f203 	lsl.w	r2, r0, r3
 8000706:	3a01      	subs	r2, #1
           ((SubPriority     & (uint32_t)((1UL << (SubPriorityBits    )) - 1UL)))
 8000708:	4088      	lsls	r0, r1
           ((PreemptPriority & (uint32_t)((1UL << (PreemptPriorityBits)) - 1UL)) << SubPriorityBits) |
 800070a:	4032      	ands	r2, r6
           ((SubPriority     & (uint32_t)((1UL << (SubPriorityBits    )) - 1UL)))
 800070c:	3801      	subs	r0, #1
           ((PreemptPriority & (uint32_t)((1UL << (PreemptPriorityBits)) - 1UL)) << SubPriorityBits) |
 800070e:	408a      	lsls	r2, r1
           ((SubPriority     & (uint32_t)((1UL << (SubPriorityBits    )) - 1UL)))
 8000710:	4005      	ands	r5, r0
  if ((int32_t)(IRQn) < 0)
 8000712:	2c00      	cmp	r4, #0
           ((PreemptPriority & (uint32_t)((1UL << (PreemptPriorityBits)) - 1UL)) << SubPriorityBits) |
 8000714:	ea42 0205 	orr.w	r2, r2, r5
 8000718:	ea4f 1202 	mov.w	r2, r2, lsl #4
    NVIC->IP[((uint32_t)(int32_t)IRQn)]               = (uint8_t)((priority << (8U - __NVIC_PRIO_BITS)) & (uint32_t)0xFFUL);
 800071c:	bfaf      	iteee	ge
 800071e:	f104 4460 	addge.w	r4, r4, #3758096384	; 0xe0000000
    SCB->SHP[(((uint32_t)(int32_t)IRQn) & 0xFUL)-4UL] = (uint8_t)((priority << (8U - __NVIC_PRIO_BITS)) & (uint32_t)0xFFUL);
 8000722:	f004 040f 	andlt.w	r4, r4, #15
 8000726:	4b07      	ldrlt	r3, [pc, #28]	; (8000744 <HAL_NVIC_SetPriority+0x80>)
 8000728:	b2d2      	uxtblt	r2, r2
    NVIC->IP[((uint32_t)(int32_t)IRQn)]               = (uint8_t)((priority << (8U - __NVIC_PRIO_BITS)) & (uint32_t)0xFFUL);
 800072a:	bfa5      	ittet	ge
 800072c:	f504 4461 	addge.w	r4, r4, #57600	; 0xe100
 8000730:	b2d2      	uxtbge	r2, r2
    SCB->SHP[(((uint32_t)(int32_t)IRQn) & 0xFUL)-4UL] = (uint8_t)((priority << (8U - __NVIC_PRIO_BITS)) & (uint32_t)0xFFUL);
 8000732:	551a      	strblt	r2, [r3, r4]
    NVIC->IP[((uint32_t)(int32_t)IRQn)]               = (uint8_t)((priority << (8U - __NVIC_PRIO_BITS)) & (uint32_t)0xFFUL);
 8000734:	f884 2300 	strbge.w	r2, [r4, #768]	; 0x300
 8000738:	bd70      	pop	{r4, r5, r6, pc}
 800073a:	bf00      	nop
 800073c:	08003086 	.word	0x08003086
 8000740:	e000ed00 	.word	0xe000ed00
 8000744:	e000ed14 	.word	0xe000ed14

08000748 <HAL_NVIC_EnableIRQ>:
  *         This parameter can be an enumerator of IRQn_Type enumeration
  *         (For the complete STM32 Devices IRQ Channels list, please refer to the appropriate CMSIS device file (stm32f4xxxx.h))
  * @retval None
  */
void HAL_NVIC_EnableIRQ(IRQn_Type IRQn)
{
 8000748:	b510      	push	{r4, lr}
  /* Check the parameters */
  assert_param(IS_NVIC_DEVICE_IRQ(IRQn));
 800074a:	1e04      	subs	r4, r0, #0
 800074c:	da03      	bge.n	8000756 <HAL_NVIC_EnableIRQ+0xe>
 800074e:	21ce      	movs	r1, #206	; 0xce
 8000750:	4806      	ldr	r0, [pc, #24]	; (800076c <HAL_NVIC_EnableIRQ+0x24>)
 8000752:	f001 fed1 	bl	80024f8 <assert_failed>
  NVIC->ISER[(((uint32_t)(int32_t)IRQn) >> 5UL)] = (uint32_t)(1UL << (((uint32_t)(int32_t)IRQn) & 0x1FUL));
 8000756:	0962      	lsrs	r2, r4, #5
 8000758:	2301      	movs	r3, #1
 800075a:	f004 041f 	and.w	r4, r4, #31
 800075e:	fa03 f404 	lsl.w	r4, r3, r4
 8000762:	4b03      	ldr	r3, [pc, #12]	; (8000770 <HAL_NVIC_EnableIRQ+0x28>)
 8000764:	f843 4022 	str.w	r4, [r3, r2, lsl #2]
 8000768:	bd10      	pop	{r4, pc}
 800076a:	bf00      	nop
 800076c:	08003086 	.word	0x08003086
 8000770:	e000e100 	.word	0xe000e100

08000774 <HAL_SYSTICK_Config>:
           function <b>SysTick_Config</b> is not included. In this case, the file <b><i>device</i>.h</b>
           must contain a vendor-specific implementation of this function.
 */
__STATIC_INLINE uint32_t SysTick_Config(uint32_t ticks)
{
  if ((ticks - 1UL) > SysTick_LOAD_RELOAD_Msk)
 8000774:	3801      	subs	r0, #1
 8000776:	f1b0 7f80 	cmp.w	r0, #16777216	; 0x1000000
 800077a:	d20a      	bcs.n	8000792 <HAL_SYSTICK_Config+0x1e>
  {
    return (1UL);                                                   /* Reload value impossible */
  }

  SysTick->LOAD  = (uint32_t)(ticks - 1UL);                         /* set reload register */
 800077c:	4b06      	ldr	r3, [pc, #24]	; (8000798 <HAL_SYSTICK_Config+0x24>)
    SCB->SHP[(((uint32_t)(int32_t)IRQn) & 0xFUL)-4UL] = (uint8_t)((priority << (8U - __NVIC_PRIO_BITS)) & (uint32_t)0xFFUL);
 800077e:	4a07      	ldr	r2, [pc, #28]	; (800079c <HAL_SYSTICK_Config+0x28>)
  SysTick->LOAD  = (uint32_t)(ticks - 1UL);                         /* set reload register */
 8000780:	6058      	str	r0, [r3, #4]
    SCB->SHP[(((uint32_t)(int32_t)IRQn) & 0xFUL)-4UL] = (uint8_t)((priority << (8U - __NVIC_PRIO_BITS)) & (uint32_t)0xFFUL);
 8000782:	21f0      	movs	r1, #240	; 0xf0
 8000784:	f882 1023 	strb.w	r1, [r2, #35]	; 0x23
  NVIC_SetPriority (SysTick_IRQn, (1UL << __NVIC_PRIO_BITS) - 1UL); /* set Priority for Systick Interrupt */
  SysTick->VAL   = 0UL;                                             /* Load the SysTick Counter Value */
 8000788:	2000      	movs	r0, #0
  SysTick->CTRL  = SysTick_CTRL_CLKSOURCE_Msk |
 800078a:	2207      	movs	r2, #7
  SysTick->VAL   = 0UL;                                             /* Load the SysTick Counter Value */
 800078c:	6098      	str	r0, [r3, #8]
  SysTick->CTRL  = SysTick_CTRL_CLKSOURCE_Msk |
 800078e:	601a      	str	r2, [r3, #0]
 8000790:	4770      	bx	lr
    return (1UL);                                                   /* Reload value impossible */
 8000792:	2001      	movs	r0, #1
  *                  - 1  Function failed.
  */
uint32_t HAL_SYSTICK_Config(uint32_t TicksNumb)
{
   return SysTick_Config(TicksNumb);
}
 8000794:	4770      	bx	lr
 8000796:	bf00      	nop
 8000798:	e000e010 	.word	0xe000e010
 800079c:	e000ed00 	.word	0xe000ed00

080007a0 <HAL_SYSTICK_CLKSourceConfig>:
  * @retval None
  */
void HAL_SYSTICK_CLKSourceConfig(uint32_t CLKSource)
{
  /* Check the parameters */
  assert_param(IS_SYSTICK_CLK_SOURCE(CLKSource));
 80007a0:	2804      	cmp	r0, #4
{
 80007a2:	b510      	push	{r4, lr}
 80007a4:	4c08      	ldr	r4, [pc, #32]	; (80007c8 <HAL_SYSTICK_CLKSourceConfig+0x28>)
  assert_param(IS_SYSTICK_CLK_SOURCE(CLKSource));
 80007a6:	d00a      	beq.n	80007be <HAL_SYSTICK_CLKSourceConfig+0x1e>
 80007a8:	b120      	cbz	r0, 80007b4 <HAL_SYSTICK_CLKSourceConfig+0x14>
 80007aa:	f240 11d9 	movw	r1, #473	; 0x1d9
 80007ae:	4807      	ldr	r0, [pc, #28]	; (80007cc <HAL_SYSTICK_CLKSourceConfig+0x2c>)
 80007b0:	f001 fea2 	bl	80024f8 <assert_failed>
  {
    SysTick->CTRL |= SYSTICK_CLKSOURCE_HCLK;
  }
  else
  {
    SysTick->CTRL &= ~SYSTICK_CLKSOURCE_HCLK;
 80007b4:	6823      	ldr	r3, [r4, #0]
 80007b6:	f023 0304 	bic.w	r3, r3, #4
    SysTick->CTRL |= SYSTICK_CLKSOURCE_HCLK;
 80007ba:	6023      	str	r3, [r4, #0]
 80007bc:	bd10      	pop	{r4, pc}
 80007be:	6823      	ldr	r3, [r4, #0]
 80007c0:	f043 0304 	orr.w	r3, r3, #4
 80007c4:	e7f9      	b.n	80007ba <HAL_SYSTICK_CLKSourceConfig+0x1a>
 80007c6:	bf00      	nop
 80007c8:	e000e010 	.word	0xe000e010
 80007cc:	08003086 	.word	0x08003086

080007d0 <HAL_SYSTICK_Callback>:
/**
  * @brief  SYSTICK callback.
  * @retval None
  */
__weak void HAL_SYSTICK_Callback(void)
{
 80007d0:	4770      	bx	lr

080007d2 <HAL_SYSTICK_IRQHandler>:
{
 80007d2:	b508      	push	{r3, lr}
  HAL_SYSTICK_Callback();
 80007d4:	f7ff fffc 	bl	80007d0 <HAL_SYSTICK_Callback>
 80007d8:	bd08      	pop	{r3, pc}

080007da <HAL_DMA_Abort_IT>:
  *                 the configuration information for the specified DMA Stream.
  * @retval HAL status
  */
HAL_StatusTypeDef HAL_DMA_Abort_IT(DMA_HandleTypeDef *hdma)
{
  if(hdma->State != HAL_DMA_STATE_BUSY)
 80007da:	f890 3035 	ldrb.w	r3, [r0, #53]	; 0x35
 80007de:	2b02      	cmp	r3, #2
 80007e0:	d003      	beq.n	80007ea <HAL_DMA_Abort_IT+0x10>
  {
    hdma->ErrorCode = HAL_DMA_ERROR_NO_XFER;
 80007e2:	2380      	movs	r3, #128	; 0x80
 80007e4:	6543      	str	r3, [r0, #84]	; 0x54
    return HAL_ERROR;
 80007e6:	2001      	movs	r0, #1
 80007e8:	4770      	bx	lr
  {
    /* Set Abort State  */
    hdma->State = HAL_DMA_STATE_ABORT;
    
    /* Disable the stream */
    __HAL_DMA_DISABLE(hdma);
 80007ea:	6802      	ldr	r2, [r0, #0]
    hdma->State = HAL_DMA_STATE_ABORT;
 80007ec:	2305      	movs	r3, #5
 80007ee:	f880 3035 	strb.w	r3, [r0, #53]	; 0x35
    __HAL_DMA_DISABLE(hdma);
 80007f2:	6813      	ldr	r3, [r2, #0]
 80007f4:	f023 0301 	bic.w	r3, r3, #1
 80007f8:	6013      	str	r3, [r2, #0]
  }

  return HAL_OK;
 80007fa:	2000      	movs	r0, #0
}
 80007fc:	4770      	bx	lr
	...

08000800 <HAL_GPIO_Init>:
  uint32_t ioposition = 0x00U;
  uint32_t iocurrent = 0x00U;
  uint32_t temp = 0x00U;

  /* Check the parameters */
  assert_param(IS_GPIO_ALL_INSTANCE(GPIOx));
 8000800:	4b97      	ldr	r3, [pc, #604]	; (8000a60 <HAL_GPIO_Init+0x260>)
 8000802:	4298      	cmp	r0, r3
{
 8000804:	e92d 4ff7 	stmdb	sp!, {r0, r1, r2, r4, r5, r6, r7, r8, r9, sl, fp, lr}
 8000808:	4604      	mov	r4, r0
 800080a:	460d      	mov	r5, r1
  assert_param(IS_GPIO_ALL_INSTANCE(GPIOx));
 800080c:	d01f      	beq.n	800084e <HAL_GPIO_Init+0x4e>
 800080e:	f503 6380 	add.w	r3, r3, #1024	; 0x400
 8000812:	4298      	cmp	r0, r3
 8000814:	d01b      	beq.n	800084e <HAL_GPIO_Init+0x4e>
 8000816:	f503 6380 	add.w	r3, r3, #1024	; 0x400
 800081a:	4298      	cmp	r0, r3
 800081c:	d017      	beq.n	800084e <HAL_GPIO_Init+0x4e>
 800081e:	f503 6380 	add.w	r3, r3, #1024	; 0x400
 8000822:	4298      	cmp	r0, r3
 8000824:	d013      	beq.n	800084e <HAL_GPIO_Init+0x4e>
 8000826:	f503 6380 	add.w	r3, r3, #1024	; 0x400
 800082a:	4298      	cmp	r0, r3
 800082c:	d00f      	beq.n	800084e <HAL_GPIO_Init+0x4e>
 800082e:	f503 6380 	add.w	r3, r3, #1024	; 0x400
 8000832:	4298      	cmp	r0, r3
 8000834:	d00b      	beq.n	800084e <HAL_GPIO_Init+0x4e>
 8000836:	f503 6380 	add.w	r3, r3, #1024	; 0x400
 800083a:	4298      	cmp	r0, r3
 800083c:	d007      	beq.n	800084e <HAL_GPIO_Init+0x4e>
 800083e:	f503 6380 	add.w	r3, r3, #1024	; 0x400
 8000842:	4298      	cmp	r0, r3
 8000844:	d003      	beq.n	800084e <HAL_GPIO_Init+0x4e>
 8000846:	21c3      	movs	r1, #195	; 0xc3
 8000848:	4886      	ldr	r0, [pc, #536]	; (8000a64 <HAL_GPIO_Init+0x264>)
 800084a:	f001 fe55 	bl	80024f8 <assert_failed>
  assert_param(IS_GPIO_PIN(GPIO_Init->Pin));
 800084e:	682b      	ldr	r3, [r5, #0]
 8000850:	b29a      	uxth	r2, r3
 8000852:	b112      	cbz	r2, 800085a <HAL_GPIO_Init+0x5a>
 8000854:	0c1b      	lsrs	r3, r3, #16
 8000856:	041b      	lsls	r3, r3, #16
 8000858:	b11b      	cbz	r3, 8000862 <HAL_GPIO_Init+0x62>
 800085a:	21c4      	movs	r1, #196	; 0xc4
 800085c:	4881      	ldr	r0, [pc, #516]	; (8000a64 <HAL_GPIO_Init+0x264>)
 800085e:	f001 fe4b 	bl	80024f8 <assert_failed>
  assert_param(IS_GPIO_MODE(GPIO_Init->Mode));
 8000862:	686b      	ldr	r3, [r5, #4]
 8000864:	2b03      	cmp	r3, #3
 8000866:	d917      	bls.n	8000898 <HAL_GPIO_Init+0x98>
 8000868:	f1a3 0211 	sub.w	r2, r3, #17
 800086c:	2a01      	cmp	r2, #1
 800086e:	d913      	bls.n	8000898 <HAL_GPIO_Init+0x98>
 8000870:	497d      	ldr	r1, [pc, #500]	; (8000a68 <HAL_GPIO_Init+0x268>)
 8000872:	f423 1200 	bic.w	r2, r3, #2097152	; 0x200000
 8000876:	428a      	cmp	r2, r1
 8000878:	d00e      	beq.n	8000898 <HAL_GPIO_Init+0x98>
 800087a:	f501 1180 	add.w	r1, r1, #1048576	; 0x100000
 800087e:	428b      	cmp	r3, r1
 8000880:	d00a      	beq.n	8000898 <HAL_GPIO_Init+0x98>
 8000882:	f5a1 2170 	sub.w	r1, r1, #983040	; 0xf0000
 8000886:	428a      	cmp	r2, r1
 8000888:	d006      	beq.n	8000898 <HAL_GPIO_Init+0x98>
 800088a:	4a78      	ldr	r2, [pc, #480]	; (8000a6c <HAL_GPIO_Init+0x26c>)
 800088c:	4293      	cmp	r3, r2
 800088e:	d003      	beq.n	8000898 <HAL_GPIO_Init+0x98>
 8000890:	21c5      	movs	r1, #197	; 0xc5
 8000892:	4874      	ldr	r0, [pc, #464]	; (8000a64 <HAL_GPIO_Init+0x264>)
 8000894:	f001 fe30 	bl	80024f8 <assert_failed>
  assert_param(IS_GPIO_PULL(GPIO_Init->Pull));
 8000898:	68ab      	ldr	r3, [r5, #8]
 800089a:	2b02      	cmp	r3, #2
 800089c:	d903      	bls.n	80008a6 <HAL_GPIO_Init+0xa6>
 800089e:	21c6      	movs	r1, #198	; 0xc6
 80008a0:	4870      	ldr	r0, [pc, #448]	; (8000a64 <HAL_GPIO_Init+0x264>)
 80008a2:	f001 fe29 	bl	80024f8 <assert_failed>
        temp &= ~(0x0FU << (4U * (position & 0x03U)));
        temp |= ((uint32_t)(GPIO_GET_INDEX(GPIOx)) << (4U * (position & 0x03U)));
        SYSCFG->EXTICR[position >> 2U] = temp;

        /* Clear EXTI line configuration */
        temp = EXTI->IMR;
 80008a6:	f8df 81cc 	ldr.w	r8, [pc, #460]	; 8000a74 <HAL_GPIO_Init+0x274>
{
 80008aa:	2600      	movs	r6, #0
    ioposition = 0x01U << position;
 80008ac:	2301      	movs	r3, #1
    iocurrent = (uint32_t)(GPIO_Init->Pin) & ioposition;
 80008ae:	682a      	ldr	r2, [r5, #0]
    ioposition = 0x01U << position;
 80008b0:	fa03 f706 	lsl.w	r7, r3, r6
    iocurrent = (uint32_t)(GPIO_Init->Pin) & ioposition;
 80008b4:	ea07 0902 	and.w	r9, r7, r2
    if(iocurrent == ioposition)
 80008b8:	454f      	cmp	r7, r9
 80008ba:	f040 80c0 	bne.w	8000a3e <HAL_GPIO_Init+0x23e>
      if((GPIO_Init->Mode == GPIO_MODE_AF_PP) || (GPIO_Init->Mode == GPIO_MODE_AF_OD))
 80008be:	686a      	ldr	r2, [r5, #4]
 80008c0:	f022 0210 	bic.w	r2, r2, #16
 80008c4:	2a02      	cmp	r2, #2
 80008c6:	d118      	bne.n	80008fa <HAL_GPIO_Init+0xfa>
        assert_param(IS_GPIO_AF(GPIO_Init->Alternate));
 80008c8:	692a      	ldr	r2, [r5, #16]
 80008ca:	2a0d      	cmp	r2, #13
 80008cc:	d905      	bls.n	80008da <HAL_GPIO_Init+0xda>
 80008ce:	2a0f      	cmp	r2, #15
 80008d0:	d003      	beq.n	80008da <HAL_GPIO_Init+0xda>
 80008d2:	21d7      	movs	r1, #215	; 0xd7
 80008d4:	4863      	ldr	r0, [pc, #396]	; (8000a64 <HAL_GPIO_Init+0x264>)
 80008d6:	f001 fe0f 	bl	80024f8 <assert_failed>
        temp = GPIOx->AFR[position >> 3U];
 80008da:	08f1      	lsrs	r1, r6, #3
 80008dc:	eb04 0181 	add.w	r1, r4, r1, lsl #2
        temp &= ~(0xFU << ((uint32_t)(position & 0x07U) * 4U)) ;
 80008e0:	f006 0207 	and.w	r2, r6, #7
 80008e4:	0090      	lsls	r0, r2, #2
        temp = GPIOx->AFR[position >> 3U];
 80008e6:	6a0b      	ldr	r3, [r1, #32]
        temp &= ~(0xFU << ((uint32_t)(position & 0x07U) * 4U)) ;
 80008e8:	220f      	movs	r2, #15
 80008ea:	4082      	lsls	r2, r0
 80008ec:	ea23 0e02 	bic.w	lr, r3, r2
        temp |= ((uint32_t)(GPIO_Init->Alternate) << (((uint32_t)position & 0x07U) * 4U));
 80008f0:	692a      	ldr	r2, [r5, #16]
 80008f2:	4082      	lsls	r2, r0
 80008f4:	ea42 020e 	orr.w	r2, r2, lr
        GPIOx->AFR[position >> 3U] = temp;
 80008f8:	620a      	str	r2, [r1, #32]
      temp |= ((GPIO_Init->Mode & GPIO_MODE) << (position * 2U));
 80008fa:	686a      	ldr	r2, [r5, #4]
      temp = GPIOx->MODER;
 80008fc:	6820      	ldr	r0, [r4, #0]
 80008fe:	ea4f 0b46 	mov.w	fp, r6, lsl #1
      temp &= ~(GPIO_MODER_MODER0 << (position * 2U));
 8000902:	f04f 0a03 	mov.w	sl, #3
 8000906:	fa0a fa0b 	lsl.w	sl, sl, fp
      temp |= ((GPIO_Init->Mode & GPIO_MODE) << (position * 2U));
 800090a:	f002 0103 	and.w	r1, r2, #3
      temp &= ~(GPIO_MODER_MODER0 << (position * 2U));
 800090e:	ea6f 0a0a 	mvn.w	sl, sl
      if((GPIO_Init->Mode == GPIO_MODE_OUTPUT_PP) || (GPIO_Init->Mode == GPIO_MODE_AF_PP) ||
 8000912:	f022 0210 	bic.w	r2, r2, #16
      temp &= ~(GPIO_MODER_MODER0 << (position * 2U));
 8000916:	ea00 000a 	and.w	r0, r0, sl
      temp |= ((GPIO_Init->Mode & GPIO_MODE) << (position * 2U));
 800091a:	fa01 f10b 	lsl.w	r1, r1, fp
      if((GPIO_Init->Mode == GPIO_MODE_OUTPUT_PP) || (GPIO_Init->Mode == GPIO_MODE_AF_PP) ||
 800091e:	3a01      	subs	r2, #1
      temp |= ((GPIO_Init->Mode & GPIO_MODE) << (position * 2U));
 8000920:	4301      	orrs	r1, r0
      if((GPIO_Init->Mode == GPIO_MODE_OUTPUT_PP) || (GPIO_Init->Mode == GPIO_MODE_AF_PP) ||
 8000922:	2a01      	cmp	r2, #1
      GPIOx->MODER = temp;
 8000924:	6021      	str	r1, [r4, #0]
      if((GPIO_Init->Mode == GPIO_MODE_OUTPUT_PP) || (GPIO_Init->Mode == GPIO_MODE_AF_PP) ||
 8000926:	d817      	bhi.n	8000958 <HAL_GPIO_Init+0x158>
        assert_param(IS_GPIO_SPEED(GPIO_Init->Speed));
 8000928:	68ea      	ldr	r2, [r5, #12]
 800092a:	2a03      	cmp	r2, #3
 800092c:	d903      	bls.n	8000936 <HAL_GPIO_Init+0x136>
 800092e:	21ea      	movs	r1, #234	; 0xea
 8000930:	484c      	ldr	r0, [pc, #304]	; (8000a64 <HAL_GPIO_Init+0x264>)
 8000932:	f001 fde1 	bl	80024f8 <assert_failed>
        temp = GPIOx->OSPEEDR; 
 8000936:	68a1      	ldr	r1, [r4, #8]
        temp |= (GPIO_Init->Speed << (position * 2U));
 8000938:	68ea      	ldr	r2, [r5, #12]
        temp |= (((GPIO_Init->Mode & GPIO_OUTPUT_TYPE) >> 4U) << position);
 800093a:	686b      	ldr	r3, [r5, #4]
        temp &= ~(GPIO_OSPEEDER_OSPEEDR0 << (position * 2U));
 800093c:	ea0a 0101 	and.w	r1, sl, r1
        temp |= (GPIO_Init->Speed << (position * 2U));
 8000940:	fa02 f20b 	lsl.w	r2, r2, fp
 8000944:	430a      	orrs	r2, r1
        GPIOx->OSPEEDR = temp;
 8000946:	60a2      	str	r2, [r4, #8]
        temp = GPIOx->OTYPER;
 8000948:	6862      	ldr	r2, [r4, #4]
        temp |= (((GPIO_Init->Mode & GPIO_OUTPUT_TYPE) >> 4U) << position);
 800094a:	f3c3 1300 	ubfx	r3, r3, #4, #1
        temp &= ~(GPIO_OTYPER_OT_0 << position) ;
 800094e:	ea22 0207 	bic.w	r2, r2, r7
        temp |= (((GPIO_Init->Mode & GPIO_OUTPUT_TYPE) >> 4U) << position);
 8000952:	40b3      	lsls	r3, r6
 8000954:	4313      	orrs	r3, r2
        GPIOx->OTYPER = temp;
 8000956:	6063      	str	r3, [r4, #4]
      temp = GPIOx->PUPDR;
 8000958:	68e3      	ldr	r3, [r4, #12]
      if((GPIO_Init->Mode & EXTI_MODE) == EXTI_MODE)
 800095a:	6868      	ldr	r0, [r5, #4]
      temp &= ~(GPIO_PUPDR_PUPDR0 << (position * 2U));
 800095c:	ea0a 0a03 	and.w	sl, sl, r3
      temp |= ((GPIO_Init->Pull) << (position * 2U));
 8000960:	68ab      	ldr	r3, [r5, #8]
 8000962:	fa03 f30b 	lsl.w	r3, r3, fp
 8000966:	ea43 030a 	orr.w	r3, r3, sl
      GPIOx->PUPDR = temp;
 800096a:	60e3      	str	r3, [r4, #12]
      if((GPIO_Init->Mode & EXTI_MODE) == EXTI_MODE)
 800096c:	00c3      	lsls	r3, r0, #3
 800096e:	d566      	bpl.n	8000a3e <HAL_GPIO_Init+0x23e>
        __HAL_RCC_SYSCFG_CLK_ENABLE();
 8000970:	4a3f      	ldr	r2, [pc, #252]	; (8000a70 <HAL_GPIO_Init+0x270>)
 8000972:	2300      	movs	r3, #0
 8000974:	9301      	str	r3, [sp, #4]
 8000976:	6c51      	ldr	r1, [r2, #68]	; 0x44
 8000978:	f441 4180 	orr.w	r1, r1, #16384	; 0x4000
 800097c:	6451      	str	r1, [r2, #68]	; 0x44
 800097e:	6c52      	ldr	r2, [r2, #68]	; 0x44
 8000980:	f026 0103 	bic.w	r1, r6, #3
 8000984:	f101 4180 	add.w	r1, r1, #1073741824	; 0x40000000
 8000988:	f402 4280 	and.w	r2, r2, #16384	; 0x4000
 800098c:	f501 319c 	add.w	r1, r1, #79872	; 0x13800
 8000990:	9201      	str	r2, [sp, #4]
        temp &= ~(0x0FU << (4U * (position & 0x03U)));
 8000992:	f006 0e03 	and.w	lr, r6, #3
        __HAL_RCC_SYSCFG_CLK_ENABLE();
 8000996:	9a01      	ldr	r2, [sp, #4]
        temp = SYSCFG->EXTICR[position >> 2U];
 8000998:	f8d1 c008 	ldr.w	ip, [r1, #8]
        temp &= ~(0x0FU << (4U * (position & 0x03U)));
 800099c:	ea4f 0e8e 	mov.w	lr, lr, lsl #2
 80009a0:	220f      	movs	r2, #15
 80009a2:	fa02 f20e 	lsl.w	r2, r2, lr
 80009a6:	ea2c 0c02 	bic.w	ip, ip, r2
        temp |= ((uint32_t)(GPIO_GET_INDEX(GPIOx)) << (4U * (position & 0x03U)));
 80009aa:	4a2d      	ldr	r2, [pc, #180]	; (8000a60 <HAL_GPIO_Init+0x260>)
 80009ac:	4294      	cmp	r4, r2
 80009ae:	d01b      	beq.n	80009e8 <HAL_GPIO_Init+0x1e8>
 80009b0:	f103 4380 	add.w	r3, r3, #1073741824	; 0x40000000
 80009b4:	f503 3301 	add.w	r3, r3, #132096	; 0x20400
 80009b8:	429c      	cmp	r4, r3
 80009ba:	d047      	beq.n	8000a4c <HAL_GPIO_Init+0x24c>
 80009bc:	f503 6380 	add.w	r3, r3, #1024	; 0x400
 80009c0:	429c      	cmp	r4, r3
 80009c2:	d045      	beq.n	8000a50 <HAL_GPIO_Init+0x250>
 80009c4:	f503 6380 	add.w	r3, r3, #1024	; 0x400
 80009c8:	429c      	cmp	r4, r3
 80009ca:	d043      	beq.n	8000a54 <HAL_GPIO_Init+0x254>
 80009cc:	f503 6380 	add.w	r3, r3, #1024	; 0x400
 80009d0:	429c      	cmp	r4, r3
 80009d2:	d041      	beq.n	8000a58 <HAL_GPIO_Init+0x258>
 80009d4:	f503 6380 	add.w	r3, r3, #1024	; 0x400
 80009d8:	429c      	cmp	r4, r3
 80009da:	d03f      	beq.n	8000a5c <HAL_GPIO_Init+0x25c>
 80009dc:	f503 6380 	add.w	r3, r3, #1024	; 0x400
 80009e0:	429c      	cmp	r4, r3
 80009e2:	bf14      	ite	ne
 80009e4:	2307      	movne	r3, #7
 80009e6:	2306      	moveq	r3, #6
 80009e8:	fa03 f30e 	lsl.w	r3, r3, lr
 80009ec:	ea43 030c 	orr.w	r3, r3, ip
        SYSCFG->EXTICR[position >> 2U] = temp;
 80009f0:	608b      	str	r3, [r1, #8]
        temp = EXTI->IMR;
 80009f2:	f8d8 2000 	ldr.w	r2, [r8]
        temp &= ~((uint32_t)iocurrent);
 80009f6:	ea6f 0109 	mvn.w	r1, r9
        if((GPIO_Init->Mode & GPIO_MODE_IT) == GPIO_MODE_IT)
 80009fa:	03c7      	lsls	r7, r0, #15
        temp &= ~((uint32_t)iocurrent);
 80009fc:	bf54      	ite	pl
 80009fe:	400a      	andpl	r2, r1
        {
          temp |= iocurrent;
 8000a00:	ea49 0202 	orrmi.w	r2, r9, r2
        }
        EXTI->IMR = temp;
 8000a04:	f8c8 2000 	str.w	r2, [r8]

        temp = EXTI->EMR;
 8000a08:	f8d8 2004 	ldr.w	r2, [r8, #4]
        temp &= ~((uint32_t)iocurrent);
        if((GPIO_Init->Mode & GPIO_MODE_EVT) == GPIO_MODE_EVT)
 8000a0c:	0383      	lsls	r3, r0, #14
        temp &= ~((uint32_t)iocurrent);
 8000a0e:	bf54      	ite	pl
 8000a10:	400a      	andpl	r2, r1
        {
          temp |= iocurrent;
 8000a12:	ea49 0202 	orrmi.w	r2, r9, r2
        }
        EXTI->EMR = temp;
 8000a16:	f8c8 2004 	str.w	r2, [r8, #4]

        /* Clear Rising Falling edge configuration */
        temp = EXTI->RTSR;
 8000a1a:	f8d8 2008 	ldr.w	r2, [r8, #8]
        temp &= ~((uint32_t)iocurrent);
        if((GPIO_Init->Mode & RISING_EDGE) == RISING_EDGE)
 8000a1e:	02c7      	lsls	r7, r0, #11
        temp &= ~((uint32_t)iocurrent);
 8000a20:	bf54      	ite	pl
 8000a22:	400a      	andpl	r2, r1
        {
          temp |= iocurrent;
 8000a24:	ea49 0202 	orrmi.w	r2, r9, r2
        }
        EXTI->RTSR = temp;
 8000a28:	f8c8 2008 	str.w	r2, [r8, #8]

        temp = EXTI->FTSR;
 8000a2c:	f8d8 300c 	ldr.w	r3, [r8, #12]
        temp &= ~((uint32_t)iocurrent);
        if((GPIO_Init->Mode & FALLING_EDGE) == FALLING_EDGE)
 8000a30:	0282      	lsls	r2, r0, #10
        temp &= ~((uint32_t)iocurrent);
 8000a32:	bf54      	ite	pl
 8000a34:	400b      	andpl	r3, r1
        {
          temp |= iocurrent;
 8000a36:	ea49 0303 	orrmi.w	r3, r9, r3
        }
        EXTI->FTSR = temp;
 8000a3a:	f8c8 300c 	str.w	r3, [r8, #12]
  for(position = 0U; position < GPIO_NUMBER; position++)
 8000a3e:	3601      	adds	r6, #1
 8000a40:	2e10      	cmp	r6, #16
 8000a42:	f47f af33 	bne.w	80008ac <HAL_GPIO_Init+0xac>
      }
    }
  }
}
 8000a46:	b003      	add	sp, #12
 8000a48:	e8bd 8ff0 	ldmia.w	sp!, {r4, r5, r6, r7, r8, r9, sl, fp, pc}
        temp |= ((uint32_t)(GPIO_GET_INDEX(GPIOx)) << (4U * (position & 0x03U)));
 8000a4c:	2301      	movs	r3, #1
 8000a4e:	e7cb      	b.n	80009e8 <HAL_GPIO_Init+0x1e8>
 8000a50:	2302      	movs	r3, #2
 8000a52:	e7c9      	b.n	80009e8 <HAL_GPIO_Init+0x1e8>
 8000a54:	2303      	movs	r3, #3
 8000a56:	e7c7      	b.n	80009e8 <HAL_GPIO_Init+0x1e8>
 8000a58:	2304      	movs	r3, #4
 8000a5a:	e7c5      	b.n	80009e8 <HAL_GPIO_Init+0x1e8>
 8000a5c:	2305      	movs	r3, #5
 8000a5e:	e7c3      	b.n	80009e8 <HAL_GPIO_Init+0x1e8>
 8000a60:	40020000 	.word	0x40020000
 8000a64:	080030c1 	.word	0x080030c1
 8000a68:	10110000 	.word	0x10110000
 8000a6c:	10220000 	.word	0x10220000
 8000a70:	40023800 	.word	0x40023800
 8000a74:	40013c00 	.word	0x40013c00

08000a78 <HAL_GPIO_WritePin>:
  *            @arg GPIO_PIN_RESET: to clear the port pin
  *            @arg GPIO_PIN_SET: to set the port pin
  * @retval None
  */
void HAL_GPIO_WritePin(GPIO_TypeDef* GPIOx, uint16_t GPIO_Pin, GPIO_PinState PinState)
{
 8000a78:	b570      	push	{r4, r5, r6, lr}
 8000a7a:	4605      	mov	r5, r0
 8000a7c:	4616      	mov	r6, r2
  /* Check the parameters */
  assert_param(IS_GPIO_PIN(GPIO_Pin));
 8000a7e:	460c      	mov	r4, r1
 8000a80:	b921      	cbnz	r1, 8000a8c <HAL_GPIO_WritePin+0x14>
 8000a82:	f240 11af 	movw	r1, #431	; 0x1af
 8000a86:	4808      	ldr	r0, [pc, #32]	; (8000aa8 <HAL_GPIO_WritePin+0x30>)
 8000a88:	f001 fd36 	bl	80024f8 <assert_failed>
  assert_param(IS_GPIO_PIN_ACTION(PinState));
 8000a8c:	2e01      	cmp	r6, #1
 8000a8e:	d906      	bls.n	8000a9e <HAL_GPIO_WritePin+0x26>
 8000a90:	f44f 71d8 	mov.w	r1, #432	; 0x1b0
 8000a94:	4804      	ldr	r0, [pc, #16]	; (8000aa8 <HAL_GPIO_WritePin+0x30>)
 8000a96:	f001 fd2f 	bl	80024f8 <assert_failed>
  {
    GPIOx->BSRR = GPIO_Pin;
  }
  else
  {
    GPIOx->BSRR = (uint32_t)GPIO_Pin << 16U;
 8000a9a:	61ac      	str	r4, [r5, #24]
 8000a9c:	bd70      	pop	{r4, r5, r6, pc}
  if(PinState != GPIO_PIN_RESET)
 8000a9e:	2e00      	cmp	r6, #0
 8000aa0:	d1fb      	bne.n	8000a9a <HAL_GPIO_WritePin+0x22>
    GPIOx->BSRR = (uint32_t)GPIO_Pin << 16U;
 8000aa2:	0424      	lsls	r4, r4, #16
 8000aa4:	e7f9      	b.n	8000a9a <HAL_GPIO_WritePin+0x22>
 8000aa6:	bf00      	nop
 8000aa8:	080030c1 	.word	0x080030c1

08000aac <I2C_IsAcknowledgeFailed>:
  *                the configuration information for the specified I2C.
  * @retval HAL status
  */
static HAL_StatusTypeDef I2C_IsAcknowledgeFailed(I2C_HandleTypeDef *hi2c)
{
  if(__HAL_I2C_GET_FLAG(hi2c, I2C_FLAG_AF) == SET)
 8000aac:	6802      	ldr	r2, [r0, #0]
 8000aae:	6953      	ldr	r3, [r2, #20]
 8000ab0:	f413 6380 	ands.w	r3, r3, #1024	; 0x400
 8000ab4:	d00d      	beq.n	8000ad2 <I2C_IsAcknowledgeFailed+0x26>
  {
    /* Clear NACKF Flag */
    __HAL_I2C_CLEAR_FLAG(hi2c, I2C_FLAG_AF);
 8000ab6:	f46f 6380 	mvn.w	r3, #1024	; 0x400
 8000aba:	6153      	str	r3, [r2, #20]

    hi2c->ErrorCode = HAL_I2C_ERROR_AF;
 8000abc:	2304      	movs	r3, #4
 8000abe:	6403      	str	r3, [r0, #64]	; 0x40
    hi2c->PreviousState = I2C_STATE_NONE;
    hi2c->State= HAL_I2C_STATE_READY;
 8000ac0:	2220      	movs	r2, #32
    hi2c->PreviousState = I2C_STATE_NONE;
 8000ac2:	2300      	movs	r3, #0
 8000ac4:	6303      	str	r3, [r0, #48]	; 0x30

    /* Process Unlocked */
    __HAL_UNLOCK(hi2c);
 8000ac6:	f880 303c 	strb.w	r3, [r0, #60]	; 0x3c
    hi2c->State= HAL_I2C_STATE_READY;
 8000aca:	f880 203d 	strb.w	r2, [r0, #61]	; 0x3d

    return HAL_ERROR;
 8000ace:	2001      	movs	r0, #1
 8000ad0:	4770      	bx	lr
  }
  return HAL_OK;
 8000ad2:	4618      	mov	r0, r3
}
 8000ad4:	4770      	bx	lr

08000ad6 <I2C_WaitOnMasterAddressFlagUntilTimeout>:
{
 8000ad6:	e92d 43f8 	stmdb	sp!, {r3, r4, r5, r6, r7, r8, r9, lr}
 8000ada:	4604      	mov	r4, r0
 8000adc:	4617      	mov	r7, r2
 8000ade:	4699      	mov	r9, r3
  while(__HAL_I2C_GET_FLAG(hi2c, Flag) == RESET)
 8000ae0:	f3c1 4807 	ubfx	r8, r1, #16, #8
 8000ae4:	b28e      	uxth	r6, r1
 8000ae6:	6825      	ldr	r5, [r4, #0]
 8000ae8:	f1b8 0f01 	cmp.w	r8, #1
 8000aec:	bf0c      	ite	eq
 8000aee:	696b      	ldreq	r3, [r5, #20]
 8000af0:	69ab      	ldrne	r3, [r5, #24]
 8000af2:	ea36 0303 	bics.w	r3, r6, r3
 8000af6:	bf14      	ite	ne
 8000af8:	2001      	movne	r0, #1
 8000afa:	2000      	moveq	r0, #0
 8000afc:	b908      	cbnz	r0, 8000b02 <I2C_WaitOnMasterAddressFlagUntilTimeout+0x2c>
}
 8000afe:	e8bd 83f8 	ldmia.w	sp!, {r3, r4, r5, r6, r7, r8, r9, pc}
    if(__HAL_I2C_GET_FLAG(hi2c, I2C_FLAG_AF) == SET)
 8000b02:	696b      	ldr	r3, [r5, #20]
 8000b04:	055a      	lsls	r2, r3, #21
 8000b06:	d512      	bpl.n	8000b2e <I2C_WaitOnMasterAddressFlagUntilTimeout+0x58>
      hi2c->Instance->CR1 |= I2C_CR1_STOP;
 8000b08:	682b      	ldr	r3, [r5, #0]
 8000b0a:	f443 7300 	orr.w	r3, r3, #512	; 0x200
 8000b0e:	602b      	str	r3, [r5, #0]
      __HAL_I2C_CLEAR_FLAG(hi2c, I2C_FLAG_AF);
 8000b10:	f46f 6380 	mvn.w	r3, #1024	; 0x400
 8000b14:	616b      	str	r3, [r5, #20]
      hi2c->ErrorCode = HAL_I2C_ERROR_AF;
 8000b16:	2304      	movs	r3, #4
 8000b18:	6423      	str	r3, [r4, #64]	; 0x40
      hi2c->State= HAL_I2C_STATE_READY;
 8000b1a:	2220      	movs	r2, #32
      hi2c->PreviousState = I2C_STATE_NONE;
 8000b1c:	2300      	movs	r3, #0
 8000b1e:	6323      	str	r3, [r4, #48]	; 0x30
      __HAL_UNLOCK(hi2c);
 8000b20:	f884 303c 	strb.w	r3, [r4, #60]	; 0x3c
      hi2c->State= HAL_I2C_STATE_READY;
 8000b24:	f884 203d 	strb.w	r2, [r4, #61]	; 0x3d
      return HAL_ERROR;
 8000b28:	2001      	movs	r0, #1
 8000b2a:	e8bd 83f8 	ldmia.w	sp!, {r3, r4, r5, r6, r7, r8, r9, pc}
    if(Timeout != HAL_MAX_DELAY)
 8000b2e:	1c7b      	adds	r3, r7, #1
 8000b30:	d0d9      	beq.n	8000ae6 <I2C_WaitOnMasterAddressFlagUntilTimeout+0x10>
      if((Timeout == 0U)||((HAL_GetTick() - Tickstart ) > Timeout))
 8000b32:	b94f      	cbnz	r7, 8000b48 <I2C_WaitOnMasterAddressFlagUntilTimeout+0x72>
        hi2c->PreviousState = I2C_STATE_NONE;
 8000b34:	2300      	movs	r3, #0
        hi2c->State= HAL_I2C_STATE_READY;
 8000b36:	2220      	movs	r2, #32
        hi2c->PreviousState = I2C_STATE_NONE;
 8000b38:	6323      	str	r3, [r4, #48]	; 0x30
        __HAL_UNLOCK(hi2c);
 8000b3a:	f884 303c 	strb.w	r3, [r4, #60]	; 0x3c
        hi2c->State= HAL_I2C_STATE_READY;
 8000b3e:	f884 203d 	strb.w	r2, [r4, #61]	; 0x3d
        return HAL_TIMEOUT;
 8000b42:	2003      	movs	r0, #3
 8000b44:	e8bd 83f8 	ldmia.w	sp!, {r3, r4, r5, r6, r7, r8, r9, pc}
      if((Timeout == 0U)||((HAL_GetTick() - Tickstart ) > Timeout))
 8000b48:	f7ff fd84 	bl	8000654 <HAL_GetTick>
 8000b4c:	eba0 0009 	sub.w	r0, r0, r9
 8000b50:	4287      	cmp	r7, r0
 8000b52:	d2c8      	bcs.n	8000ae6 <I2C_WaitOnMasterAddressFlagUntilTimeout+0x10>
 8000b54:	e7ee      	b.n	8000b34 <I2C_WaitOnMasterAddressFlagUntilTimeout+0x5e>

08000b56 <I2C_WaitOnFlagUntilTimeout>:
{
 8000b56:	e92d 43f8 	stmdb	sp!, {r3, r4, r5, r6, r7, r8, r9, lr}
 8000b5a:	9e08      	ldr	r6, [sp, #32]
 8000b5c:	4604      	mov	r4, r0
 8000b5e:	4690      	mov	r8, r2
 8000b60:	461f      	mov	r7, r3
  while((__HAL_I2C_GET_FLAG(hi2c, Flag) ? SET : RESET) == Status) 
 8000b62:	f3c1 4907 	ubfx	r9, r1, #16, #8
 8000b66:	b28d      	uxth	r5, r1
 8000b68:	6823      	ldr	r3, [r4, #0]
 8000b6a:	f1b9 0f01 	cmp.w	r9, #1
 8000b6e:	bf0c      	ite	eq
 8000b70:	695b      	ldreq	r3, [r3, #20]
 8000b72:	699b      	ldrne	r3, [r3, #24]
 8000b74:	ea35 0303 	bics.w	r3, r5, r3
 8000b78:	bf0c      	ite	eq
 8000b7a:	2301      	moveq	r3, #1
 8000b7c:	2300      	movne	r3, #0
 8000b7e:	4543      	cmp	r3, r8
 8000b80:	d002      	beq.n	8000b88 <I2C_WaitOnFlagUntilTimeout+0x32>
  return HAL_OK;
 8000b82:	2000      	movs	r0, #0
}
 8000b84:	e8bd 83f8 	ldmia.w	sp!, {r3, r4, r5, r6, r7, r8, r9, pc}
    if(Timeout != HAL_MAX_DELAY)
 8000b88:	1c7b      	adds	r3, r7, #1
 8000b8a:	d0ed      	beq.n	8000b68 <I2C_WaitOnFlagUntilTimeout+0x12>
      if((Timeout == 0U)||((HAL_GetTick() - Tickstart ) > Timeout))
 8000b8c:	b95f      	cbnz	r7, 8000ba6 <I2C_WaitOnFlagUntilTimeout+0x50>
        hi2c->PreviousState = I2C_STATE_NONE;
 8000b8e:	2300      	movs	r3, #0
        hi2c->State= HAL_I2C_STATE_READY;
 8000b90:	2220      	movs	r2, #32
        hi2c->PreviousState = I2C_STATE_NONE;
 8000b92:	6323      	str	r3, [r4, #48]	; 0x30
        __HAL_UNLOCK(hi2c);
 8000b94:	f884 303c 	strb.w	r3, [r4, #60]	; 0x3c
        hi2c->State= HAL_I2C_STATE_READY;
 8000b98:	f884 203d 	strb.w	r2, [r4, #61]	; 0x3d
        __HAL_UNLOCK(hi2c);
 8000b9c:	2003      	movs	r0, #3
        hi2c->Mode = HAL_I2C_MODE_NONE;
 8000b9e:	f884 303e 	strb.w	r3, [r4, #62]	; 0x3e
 8000ba2:	e8bd 83f8 	ldmia.w	sp!, {r3, r4, r5, r6, r7, r8, r9, pc}
      if((Timeout == 0U)||((HAL_GetTick() - Tickstart ) > Timeout))
 8000ba6:	f7ff fd55 	bl	8000654 <HAL_GetTick>
 8000baa:	1b80      	subs	r0, r0, r6
 8000bac:	4287      	cmp	r7, r0
 8000bae:	d2db      	bcs.n	8000b68 <I2C_WaitOnFlagUntilTimeout+0x12>
 8000bb0:	e7ed      	b.n	8000b8e <I2C_WaitOnFlagUntilTimeout+0x38>

08000bb2 <I2C_WaitOnTXEFlagUntilTimeout>:
{    
 8000bb2:	b570      	push	{r4, r5, r6, lr}
 8000bb4:	4604      	mov	r4, r0
 8000bb6:	460d      	mov	r5, r1
 8000bb8:	4616      	mov	r6, r2
  while(__HAL_I2C_GET_FLAG(hi2c, I2C_FLAG_TXE) == RESET)
 8000bba:	6823      	ldr	r3, [r4, #0]
 8000bbc:	695b      	ldr	r3, [r3, #20]
 8000bbe:	061b      	lsls	r3, r3, #24
 8000bc0:	d501      	bpl.n	8000bc6 <I2C_WaitOnTXEFlagUntilTimeout+0x14>
  return HAL_OK;      
 8000bc2:	2000      	movs	r0, #0
 8000bc4:	bd70      	pop	{r4, r5, r6, pc}
    if(I2C_IsAcknowledgeFailed(hi2c) != HAL_OK)
 8000bc6:	4620      	mov	r0, r4
 8000bc8:	f7ff ff70 	bl	8000aac <I2C_IsAcknowledgeFailed>
 8000bcc:	b9a8      	cbnz	r0, 8000bfa <I2C_WaitOnTXEFlagUntilTimeout+0x48>
    if(Timeout != HAL_MAX_DELAY)
 8000bce:	1c6a      	adds	r2, r5, #1
 8000bd0:	d0f3      	beq.n	8000bba <I2C_WaitOnTXEFlagUntilTimeout+0x8>
      if((Timeout == 0U) || ((HAL_GetTick()-Tickstart) > Timeout))
 8000bd2:	b965      	cbnz	r5, 8000bee <I2C_WaitOnTXEFlagUntilTimeout+0x3c>
        hi2c->ErrorCode |= HAL_I2C_ERROR_TIMEOUT;
 8000bd4:	6c23      	ldr	r3, [r4, #64]	; 0x40
 8000bd6:	f043 0320 	orr.w	r3, r3, #32
 8000bda:	6423      	str	r3, [r4, #64]	; 0x40
        hi2c->State= HAL_I2C_STATE_READY;
 8000bdc:	2220      	movs	r2, #32
        hi2c->PreviousState = I2C_STATE_NONE;
 8000bde:	2300      	movs	r3, #0
 8000be0:	6323      	str	r3, [r4, #48]	; 0x30
        __HAL_UNLOCK(hi2c);
 8000be2:	f884 303c 	strb.w	r3, [r4, #60]	; 0x3c
        hi2c->State= HAL_I2C_STATE_READY;
 8000be6:	f884 203d 	strb.w	r2, [r4, #61]	; 0x3d
        __HAL_UNLOCK(hi2c);
 8000bea:	2003      	movs	r0, #3
 8000bec:	bd70      	pop	{r4, r5, r6, pc}
      if((Timeout == 0U) || ((HAL_GetTick()-Tickstart) > Timeout))
 8000bee:	f7ff fd31 	bl	8000654 <HAL_GetTick>
 8000bf2:	1b80      	subs	r0, r0, r6
 8000bf4:	4285      	cmp	r5, r0
 8000bf6:	d2e0      	bcs.n	8000bba <I2C_WaitOnTXEFlagUntilTimeout+0x8>
 8000bf8:	e7ec      	b.n	8000bd4 <I2C_WaitOnTXEFlagUntilTimeout+0x22>
      return HAL_ERROR;
 8000bfa:	2001      	movs	r0, #1
}
 8000bfc:	bd70      	pop	{r4, r5, r6, pc}

08000bfe <I2C_WaitOnRXNEFlagUntilTimeout>:
{  
 8000bfe:	b570      	push	{r4, r5, r6, lr}
 8000c00:	4604      	mov	r4, r0
 8000c02:	460d      	mov	r5, r1
 8000c04:	4616      	mov	r6, r2
  while(__HAL_I2C_GET_FLAG(hi2c, I2C_FLAG_RXNE) == RESET)
 8000c06:	6820      	ldr	r0, [r4, #0]
 8000c08:	6943      	ldr	r3, [r0, #20]
 8000c0a:	f013 0340 	ands.w	r3, r3, #64	; 0x40
 8000c0e:	d001      	beq.n	8000c14 <I2C_WaitOnRXNEFlagUntilTimeout+0x16>
  return HAL_OK;
 8000c10:	2000      	movs	r0, #0
}
 8000c12:	bd70      	pop	{r4, r5, r6, pc}
    if(__HAL_I2C_GET_FLAG(hi2c, I2C_FLAG_STOPF) == SET)
 8000c14:	6942      	ldr	r2, [r0, #20]
 8000c16:	06d2      	lsls	r2, r2, #27
 8000c18:	d50b      	bpl.n	8000c32 <I2C_WaitOnRXNEFlagUntilTimeout+0x34>
      __HAL_I2C_CLEAR_FLAG(hi2c, I2C_FLAG_STOPF);
 8000c1a:	f06f 0210 	mvn.w	r2, #16
 8000c1e:	6142      	str	r2, [r0, #20]
      hi2c->State= HAL_I2C_STATE_READY;
 8000c20:	2220      	movs	r2, #32
      hi2c->ErrorCode = HAL_I2C_ERROR_NONE;
 8000c22:	6423      	str	r3, [r4, #64]	; 0x40
      __HAL_UNLOCK(hi2c);
 8000c24:	f884 303c 	strb.w	r3, [r4, #60]	; 0x3c
      hi2c->PreviousState = I2C_STATE_NONE;
 8000c28:	6323      	str	r3, [r4, #48]	; 0x30
      return HAL_ERROR;
 8000c2a:	2001      	movs	r0, #1
      hi2c->State= HAL_I2C_STATE_READY;
 8000c2c:	f884 203d 	strb.w	r2, [r4, #61]	; 0x3d
      return HAL_ERROR;
 8000c30:	bd70      	pop	{r4, r5, r6, pc}
    if((Timeout == 0U) || ((HAL_GetTick()-Tickstart) > Timeout))
 8000c32:	b95d      	cbnz	r5, 8000c4c <I2C_WaitOnRXNEFlagUntilTimeout+0x4e>
      hi2c->ErrorCode |= HAL_I2C_ERROR_TIMEOUT;
 8000c34:	6c23      	ldr	r3, [r4, #64]	; 0x40
 8000c36:	f043 0320 	orr.w	r3, r3, #32
 8000c3a:	6423      	str	r3, [r4, #64]	; 0x40
      hi2c->State= HAL_I2C_STATE_READY;
 8000c3c:	2320      	movs	r3, #32
 8000c3e:	f884 303d 	strb.w	r3, [r4, #61]	; 0x3d
      __HAL_UNLOCK(hi2c);
 8000c42:	2300      	movs	r3, #0
 8000c44:	f884 303c 	strb.w	r3, [r4, #60]	; 0x3c
 8000c48:	2003      	movs	r0, #3
 8000c4a:	bd70      	pop	{r4, r5, r6, pc}
    if((Timeout == 0U) || ((HAL_GetTick()-Tickstart) > Timeout))
 8000c4c:	f7ff fd02 	bl	8000654 <HAL_GetTick>
 8000c50:	1b80      	subs	r0, r0, r6
 8000c52:	4285      	cmp	r5, r0
 8000c54:	d2d7      	bcs.n	8000c06 <I2C_WaitOnRXNEFlagUntilTimeout+0x8>
 8000c56:	e7ed      	b.n	8000c34 <I2C_WaitOnRXNEFlagUntilTimeout+0x36>

08000c58 <I2C_WaitOnBTFFlagUntilTimeout>:
{  
 8000c58:	b570      	push	{r4, r5, r6, lr}
 8000c5a:	4604      	mov	r4, r0
 8000c5c:	460d      	mov	r5, r1
 8000c5e:	4616      	mov	r6, r2
  while(__HAL_I2C_GET_FLAG(hi2c, I2C_FLAG_BTF) == RESET)
 8000c60:	6823      	ldr	r3, [r4, #0]
 8000c62:	695b      	ldr	r3, [r3, #20]
 8000c64:	075b      	lsls	r3, r3, #29
 8000c66:	d501      	bpl.n	8000c6c <I2C_WaitOnBTFFlagUntilTimeout+0x14>
  return HAL_OK;
 8000c68:	2000      	movs	r0, #0
 8000c6a:	bd70      	pop	{r4, r5, r6, pc}
    if(I2C_IsAcknowledgeFailed(hi2c) != HAL_OK)
 8000c6c:	4620      	mov	r0, r4
 8000c6e:	f7ff ff1d 	bl	8000aac <I2C_IsAcknowledgeFailed>
 8000c72:	b9a8      	cbnz	r0, 8000ca0 <I2C_WaitOnBTFFlagUntilTimeout+0x48>
    if(Timeout != HAL_MAX_DELAY)
 8000c74:	1c6a      	adds	r2, r5, #1
 8000c76:	d0f3      	beq.n	8000c60 <I2C_WaitOnBTFFlagUntilTimeout+0x8>
      if((Timeout == 0U) || ((HAL_GetTick()-Tickstart) > Timeout))
 8000c78:	b965      	cbnz	r5, 8000c94 <I2C_WaitOnBTFFlagUntilTimeout+0x3c>
        hi2c->ErrorCode |= HAL_I2C_ERROR_TIMEOUT;
 8000c7a:	6c23      	ldr	r3, [r4, #64]	; 0x40
 8000c7c:	f043 0320 	orr.w	r3, r3, #32
 8000c80:	6423      	str	r3, [r4, #64]	; 0x40
        hi2c->State= HAL_I2C_STATE_READY;
 8000c82:	2220      	movs	r2, #32
        hi2c->PreviousState = I2C_STATE_NONE;
 8000c84:	2300      	movs	r3, #0
 8000c86:	6323      	str	r3, [r4, #48]	; 0x30
        __HAL_UNLOCK(hi2c);
 8000c88:	f884 303c 	strb.w	r3, [r4, #60]	; 0x3c
        hi2c->State= HAL_I2C_STATE_READY;
 8000c8c:	f884 203d 	strb.w	r2, [r4, #61]	; 0x3d
        __HAL_UNLOCK(hi2c);
 8000c90:	2003      	movs	r0, #3
 8000c92:	bd70      	pop	{r4, r5, r6, pc}
      if((Timeout == 0U) || ((HAL_GetTick()-Tickstart) > Timeout))
 8000c94:	f7ff fcde 	bl	8000654 <HAL_GetTick>
 8000c98:	1b80      	subs	r0, r0, r6
 8000c9a:	4285      	cmp	r5, r0
 8000c9c:	d2e0      	bcs.n	8000c60 <I2C_WaitOnBTFFlagUntilTimeout+0x8>
 8000c9e:	e7ec      	b.n	8000c7a <I2C_WaitOnBTFFlagUntilTimeout+0x22>
      return HAL_ERROR;
 8000ca0:	2001      	movs	r0, #1
}
 8000ca2:	bd70      	pop	{r4, r5, r6, pc}

08000ca4 <HAL_I2C_Init>:
{
 8000ca4:	b570      	push	{r4, r5, r6, lr}
  if(hi2c == NULL)
 8000ca6:	4604      	mov	r4, r0
 8000ca8:	2800      	cmp	r0, #0
 8000caa:	f000 80c1 	beq.w	8000e30 <HAL_I2C_Init+0x18c>
  assert_param(IS_I2C_ALL_INSTANCE(hi2c->Instance));
 8000cae:	6803      	ldr	r3, [r0, #0]
 8000cb0:	4a60      	ldr	r2, [pc, #384]	; (8000e34 <HAL_I2C_Init+0x190>)
 8000cb2:	4293      	cmp	r3, r2
 8000cb4:	d00c      	beq.n	8000cd0 <HAL_I2C_Init+0x2c>
 8000cb6:	f502 6280 	add.w	r2, r2, #1024	; 0x400
 8000cba:	4293      	cmp	r3, r2
 8000cbc:	d008      	beq.n	8000cd0 <HAL_I2C_Init+0x2c>
 8000cbe:	f502 6280 	add.w	r2, r2, #1024	; 0x400
 8000cc2:	4293      	cmp	r3, r2
 8000cc4:	d004      	beq.n	8000cd0 <HAL_I2C_Init+0x2c>
 8000cc6:	f44f 71b7 	mov.w	r1, #366	; 0x16e
 8000cca:	485b      	ldr	r0, [pc, #364]	; (8000e38 <HAL_I2C_Init+0x194>)
 8000ccc:	f001 fc14 	bl	80024f8 <assert_failed>
  assert_param(IS_I2C_CLOCK_SPEED(hi2c->Init.ClockSpeed));
 8000cd0:	6863      	ldr	r3, [r4, #4]
 8000cd2:	4a5a      	ldr	r2, [pc, #360]	; (8000e3c <HAL_I2C_Init+0x198>)
 8000cd4:	3b01      	subs	r3, #1
 8000cd6:	4293      	cmp	r3, r2
 8000cd8:	d904      	bls.n	8000ce4 <HAL_I2C_Init+0x40>
 8000cda:	f240 116f 	movw	r1, #367	; 0x16f
 8000cde:	4856      	ldr	r0, [pc, #344]	; (8000e38 <HAL_I2C_Init+0x194>)
 8000ce0:	f001 fc0a 	bl	80024f8 <assert_failed>
  assert_param(IS_I2C_DUTY_CYCLE(hi2c->Init.DutyCycle));
 8000ce4:	68a3      	ldr	r3, [r4, #8]
 8000ce6:	f433 4380 	bics.w	r3, r3, #16384	; 0x4000
 8000cea:	d004      	beq.n	8000cf6 <HAL_I2C_Init+0x52>
 8000cec:	f44f 71b8 	mov.w	r1, #368	; 0x170
 8000cf0:	4851      	ldr	r0, [pc, #324]	; (8000e38 <HAL_I2C_Init+0x194>)
 8000cf2:	f001 fc01 	bl	80024f8 <assert_failed>
  assert_param(IS_I2C_OWN_ADDRESS1(hi2c->Init.OwnAddress1));
 8000cf6:	68e3      	ldr	r3, [r4, #12]
 8000cf8:	f423 737f 	bic.w	r3, r3, #1020	; 0x3fc
 8000cfc:	f023 0303 	bic.w	r3, r3, #3
 8000d00:	b123      	cbz	r3, 8000d0c <HAL_I2C_Init+0x68>
 8000d02:	f240 1171 	movw	r1, #369	; 0x171
 8000d06:	484c      	ldr	r0, [pc, #304]	; (8000e38 <HAL_I2C_Init+0x194>)
 8000d08:	f001 fbf6 	bl	80024f8 <assert_failed>
  assert_param(IS_I2C_ADDRESSING_MODE(hi2c->Init.AddressingMode));
 8000d0c:	6923      	ldr	r3, [r4, #16]
 8000d0e:	f423 4300 	bic.w	r3, r3, #32768	; 0x8000
 8000d12:	f5b3 4f80 	cmp.w	r3, #16384	; 0x4000
 8000d16:	d004      	beq.n	8000d22 <HAL_I2C_Init+0x7e>
 8000d18:	f44f 71b9 	mov.w	r1, #370	; 0x172
 8000d1c:	4846      	ldr	r0, [pc, #280]	; (8000e38 <HAL_I2C_Init+0x194>)
 8000d1e:	f001 fbeb 	bl	80024f8 <assert_failed>
  assert_param(IS_I2C_DUAL_ADDRESS(hi2c->Init.DualAddressMode));
 8000d22:	6963      	ldr	r3, [r4, #20]
 8000d24:	2b01      	cmp	r3, #1
 8000d26:	d904      	bls.n	8000d32 <HAL_I2C_Init+0x8e>
 8000d28:	f240 1173 	movw	r1, #371	; 0x173
 8000d2c:	4842      	ldr	r0, [pc, #264]	; (8000e38 <HAL_I2C_Init+0x194>)
 8000d2e:	f001 fbe3 	bl	80024f8 <assert_failed>
  assert_param(IS_I2C_OWN_ADDRESS2(hi2c->Init.OwnAddress2));
 8000d32:	69a3      	ldr	r3, [r4, #24]
 8000d34:	f033 03fe 	bics.w	r3, r3, #254	; 0xfe
 8000d38:	d004      	beq.n	8000d44 <HAL_I2C_Init+0xa0>
 8000d3a:	f44f 71ba 	mov.w	r1, #372	; 0x174
 8000d3e:	483e      	ldr	r0, [pc, #248]	; (8000e38 <HAL_I2C_Init+0x194>)
 8000d40:	f001 fbda 	bl	80024f8 <assert_failed>
  assert_param(IS_I2C_GENERAL_CALL(hi2c->Init.GeneralCallMode));
 8000d44:	69e3      	ldr	r3, [r4, #28]
 8000d46:	f033 0340 	bics.w	r3, r3, #64	; 0x40
 8000d4a:	d004      	beq.n	8000d56 <HAL_I2C_Init+0xb2>
 8000d4c:	f240 1175 	movw	r1, #373	; 0x175
 8000d50:	4839      	ldr	r0, [pc, #228]	; (8000e38 <HAL_I2C_Init+0x194>)
 8000d52:	f001 fbd1 	bl	80024f8 <assert_failed>
  assert_param(IS_I2C_NO_STRETCH(hi2c->Init.NoStretchMode));
 8000d56:	6a23      	ldr	r3, [r4, #32]
 8000d58:	f033 0380 	bics.w	r3, r3, #128	; 0x80
 8000d5c:	d004      	beq.n	8000d68 <HAL_I2C_Init+0xc4>
 8000d5e:	f44f 71bb 	mov.w	r1, #374	; 0x176
 8000d62:	4835      	ldr	r0, [pc, #212]	; (8000e38 <HAL_I2C_Init+0x194>)
 8000d64:	f001 fbc8 	bl	80024f8 <assert_failed>
  if(hi2c->State == HAL_I2C_STATE_RESET)
 8000d68:	f894 303d 	ldrb.w	r3, [r4, #61]	; 0x3d
 8000d6c:	f003 02ff 	and.w	r2, r3, #255	; 0xff
 8000d70:	b923      	cbnz	r3, 8000d7c <HAL_I2C_Init+0xd8>
    hi2c->Lock = HAL_UNLOCKED;
 8000d72:	f884 203c 	strb.w	r2, [r4, #60]	; 0x3c
    HAL_I2C_MspInit(hi2c);
 8000d76:	4620      	mov	r0, r4
 8000d78:	f001 fc08 	bl	800258c <HAL_I2C_MspInit>
  __HAL_I2C_DISABLE(hi2c);
 8000d7c:	6822      	ldr	r2, [r4, #0]
  hi2c->Instance->TRISE = I2C_RISE_TIME(freqrange, hi2c->Init.ClockSpeed);
 8000d7e:	4e30      	ldr	r6, [pc, #192]	; (8000e40 <HAL_I2C_Init+0x19c>)
  freqrange = I2C_FREQRANGE(pclk1);
 8000d80:	4d30      	ldr	r5, [pc, #192]	; (8000e44 <HAL_I2C_Init+0x1a0>)
  hi2c->State = HAL_I2C_STATE_BUSY;
 8000d82:	2324      	movs	r3, #36	; 0x24
 8000d84:	f884 303d 	strb.w	r3, [r4, #61]	; 0x3d
  __HAL_I2C_DISABLE(hi2c);
 8000d88:	6813      	ldr	r3, [r2, #0]
 8000d8a:	f023 0301 	bic.w	r3, r3, #1
 8000d8e:	6013      	str	r3, [r2, #0]
  pclk1 = HAL_RCC_GetPCLK1Freq();
 8000d90:	f000 fba0 	bl	80014d4 <HAL_RCC_GetPCLK1Freq>
  hi2c->Instance->TRISE = I2C_RISE_TIME(freqrange, hi2c->Init.ClockSpeed);
 8000d94:	6863      	ldr	r3, [r4, #4]
  hi2c->Instance->CR2 = freqrange;
 8000d96:	6822      	ldr	r2, [r4, #0]
  freqrange = I2C_FREQRANGE(pclk1);
 8000d98:	fbb0 f5f5 	udiv	r5, r0, r5
  hi2c->Instance->TRISE = I2C_RISE_TIME(freqrange, hi2c->Init.ClockSpeed);
 8000d9c:	42b3      	cmp	r3, r6
 8000d9e:	bf84      	itt	hi
 8000da0:	f44f 7196 	movhi.w	r1, #300	; 0x12c
 8000da4:	4369      	mulhi	r1, r5
  hi2c->Instance->CR2 = freqrange;
 8000da6:	6055      	str	r5, [r2, #4]
  hi2c->Instance->TRISE = I2C_RISE_TIME(freqrange, hi2c->Init.ClockSpeed);
 8000da8:	bf91      	iteee	ls
 8000daa:	1c69      	addls	r1, r5, #1
 8000dac:	f44f 757a 	movhi.w	r5, #1000	; 0x3e8
 8000db0:	fbb1 f1f5 	udivhi	r1, r1, r5
 8000db4:	3101      	addhi	r1, #1
  hi2c->Instance->CCR = I2C_SPEED(pclk1, hi2c->Init.ClockSpeed, hi2c->Init.DutyCycle);
 8000db6:	42b3      	cmp	r3, r6
  hi2c->Instance->TRISE = I2C_RISE_TIME(freqrange, hi2c->Init.ClockSpeed);
 8000db8:	6211      	str	r1, [r2, #32]
  hi2c->Instance->CCR = I2C_SPEED(pclk1, hi2c->Init.ClockSpeed, hi2c->Init.DutyCycle);
 8000dba:	d821      	bhi.n	8000e00 <HAL_I2C_Init+0x15c>
 8000dbc:	005b      	lsls	r3, r3, #1
 8000dbe:	fbb0 f0f3 	udiv	r0, r0, r3
 8000dc2:	f3c0 030b 	ubfx	r3, r0, #0, #12
 8000dc6:	2b03      	cmp	r3, #3
 8000dc8:	bf98      	it	ls
 8000dca:	2004      	movls	r0, #4
  hi2c->Instance->CR1 = (hi2c->Init.GeneralCallMode | hi2c->Init.NoStretchMode);
 8000dcc:	6a21      	ldr	r1, [r4, #32]
 8000dce:	69e3      	ldr	r3, [r4, #28]
  hi2c->Instance->CCR = I2C_SPEED(pclk1, hi2c->Init.ClockSpeed, hi2c->Init.DutyCycle);
 8000dd0:	61d0      	str	r0, [r2, #28]
  hi2c->Instance->CR1 = (hi2c->Init.GeneralCallMode | hi2c->Init.NoStretchMode);
 8000dd2:	430b      	orrs	r3, r1
 8000dd4:	6013      	str	r3, [r2, #0]
  hi2c->Instance->OAR1 = (hi2c->Init.AddressingMode | hi2c->Init.OwnAddress1);
 8000dd6:	68e1      	ldr	r1, [r4, #12]
 8000dd8:	6923      	ldr	r3, [r4, #16]
 8000dda:	430b      	orrs	r3, r1
 8000ddc:	6093      	str	r3, [r2, #8]
  hi2c->Instance->OAR2 = (hi2c->Init.DualAddressMode | hi2c->Init.OwnAddress2);
 8000dde:	69a1      	ldr	r1, [r4, #24]
 8000de0:	6963      	ldr	r3, [r4, #20]
 8000de2:	430b      	orrs	r3, r1
 8000de4:	60d3      	str	r3, [r2, #12]
  __HAL_I2C_ENABLE(hi2c);
 8000de6:	6813      	ldr	r3, [r2, #0]
 8000de8:	f043 0301 	orr.w	r3, r3, #1
 8000dec:	6013      	str	r3, [r2, #0]
  hi2c->ErrorCode = HAL_I2C_ERROR_NONE;
 8000dee:	2000      	movs	r0, #0
  hi2c->State = HAL_I2C_STATE_READY;
 8000df0:	2320      	movs	r3, #32
  hi2c->ErrorCode = HAL_I2C_ERROR_NONE;
 8000df2:	6420      	str	r0, [r4, #64]	; 0x40
  hi2c->State = HAL_I2C_STATE_READY;
 8000df4:	f884 303d 	strb.w	r3, [r4, #61]	; 0x3d
  hi2c->PreviousState = I2C_STATE_NONE;
 8000df8:	6320      	str	r0, [r4, #48]	; 0x30
  hi2c->Mode = HAL_I2C_MODE_NONE;
 8000dfa:	f884 003e 	strb.w	r0, [r4, #62]	; 0x3e
  return HAL_OK;
 8000dfe:	bd70      	pop	{r4, r5, r6, pc}
  hi2c->Instance->CCR = I2C_SPEED(pclk1, hi2c->Init.ClockSpeed, hi2c->Init.DutyCycle);
 8000e00:	68a1      	ldr	r1, [r4, #8]
 8000e02:	b949      	cbnz	r1, 8000e18 <HAL_I2C_Init+0x174>
 8000e04:	eb03 0343 	add.w	r3, r3, r3, lsl #1
 8000e08:	fbb0 f0f3 	udiv	r0, r0, r3
 8000e0c:	f3c0 030b 	ubfx	r3, r0, #0, #12
 8000e10:	b163      	cbz	r3, 8000e2c <HAL_I2C_Init+0x188>
 8000e12:	f440 4000 	orr.w	r0, r0, #32768	; 0x8000
 8000e16:	e7d9      	b.n	8000dcc <HAL_I2C_Init+0x128>
 8000e18:	2119      	movs	r1, #25
 8000e1a:	434b      	muls	r3, r1
 8000e1c:	fbb0 f0f3 	udiv	r0, r0, r3
 8000e20:	f3c0 030b 	ubfx	r3, r0, #0, #12
 8000e24:	b113      	cbz	r3, 8000e2c <HAL_I2C_Init+0x188>
 8000e26:	f440 4040 	orr.w	r0, r0, #49152	; 0xc000
 8000e2a:	e7cf      	b.n	8000dcc <HAL_I2C_Init+0x128>
 8000e2c:	2001      	movs	r0, #1
 8000e2e:	e7cd      	b.n	8000dcc <HAL_I2C_Init+0x128>
    return HAL_ERROR;
 8000e30:	2001      	movs	r0, #1
}
 8000e32:	bd70      	pop	{r4, r5, r6, pc}
 8000e34:	40005400 	.word	0x40005400
 8000e38:	080030fa 	.word	0x080030fa
 8000e3c:	00061a7f 	.word	0x00061a7f
 8000e40:	000186a0 	.word	0x000186a0
 8000e44:	000f4240 	.word	0x000f4240

08000e48 <HAL_I2C_Master_Transmit>:
{
 8000e48:	e92d 41ff 	stmdb	sp!, {r0, r1, r2, r3, r4, r5, r6, r7, r8, lr}
 8000e4c:	4604      	mov	r4, r0
 8000e4e:	461f      	mov	r7, r3
 8000e50:	460d      	mov	r5, r1
 8000e52:	4690      	mov	r8, r2
  tickstart = HAL_GetTick();
 8000e54:	f7ff fbfe 	bl	8000654 <HAL_GetTick>
  if(hi2c->State == HAL_I2C_STATE_READY)
 8000e58:	f894 303d 	ldrb.w	r3, [r4, #61]	; 0x3d
 8000e5c:	2b20      	cmp	r3, #32
  tickstart = HAL_GetTick();
 8000e5e:	4606      	mov	r6, r0
  if(hi2c->State == HAL_I2C_STATE_READY)
 8000e60:	d004      	beq.n	8000e6c <HAL_I2C_Master_Transmit+0x24>
    return HAL_BUSY;
 8000e62:	2502      	movs	r5, #2
}
 8000e64:	4628      	mov	r0, r5
 8000e66:	b004      	add	sp, #16
 8000e68:	e8bd 81f0 	ldmia.w	sp!, {r4, r5, r6, r7, r8, pc}
    if(I2C_WaitOnFlagUntilTimeout(hi2c, I2C_FLAG_BUSY, SET, I2C_TIMEOUT_BUSY_FLAG, tickstart) != HAL_OK)
 8000e6c:	9000      	str	r0, [sp, #0]
 8000e6e:	2319      	movs	r3, #25
 8000e70:	2201      	movs	r2, #1
 8000e72:	495d      	ldr	r1, [pc, #372]	; (8000fe8 <HAL_I2C_Master_Transmit+0x1a0>)
 8000e74:	4620      	mov	r0, r4
 8000e76:	f7ff fe6e 	bl	8000b56 <I2C_WaitOnFlagUntilTimeout>
 8000e7a:	2800      	cmp	r0, #0
 8000e7c:	d1f1      	bne.n	8000e62 <HAL_I2C_Master_Transmit+0x1a>
    __HAL_LOCK(hi2c);
 8000e7e:	f894 303c 	ldrb.w	r3, [r4, #60]	; 0x3c
 8000e82:	2b01      	cmp	r3, #1
 8000e84:	d0ed      	beq.n	8000e62 <HAL_I2C_Master_Transmit+0x1a>
 8000e86:	2301      	movs	r3, #1
 8000e88:	f884 303c 	strb.w	r3, [r4, #60]	; 0x3c
    if((hi2c->Instance->CR1 & I2C_CR1_PE) != I2C_CR1_PE)
 8000e8c:	6823      	ldr	r3, [r4, #0]
 8000e8e:	681a      	ldr	r2, [r3, #0]
 8000e90:	07d2      	lsls	r2, r2, #31
      __HAL_I2C_ENABLE(hi2c);
 8000e92:	bf5e      	ittt	pl
 8000e94:	681a      	ldrpl	r2, [r3, #0]
 8000e96:	f042 0201 	orrpl.w	r2, r2, #1
 8000e9a:	601a      	strpl	r2, [r3, #0]
    hi2c->Instance->CR1 &= ~I2C_CR1_POS;
 8000e9c:	681a      	ldr	r2, [r3, #0]
 8000e9e:	f422 6200 	bic.w	r2, r2, #2048	; 0x800
 8000ea2:	601a      	str	r2, [r3, #0]
    hi2c->State     = HAL_I2C_STATE_BUSY_TX;
 8000ea4:	2221      	movs	r2, #33	; 0x21
 8000ea6:	f884 203d 	strb.w	r2, [r4, #61]	; 0x3d
    hi2c->Mode      = HAL_I2C_MODE_MASTER;
 8000eaa:	2210      	movs	r2, #16
 8000eac:	f884 203e 	strb.w	r2, [r4, #62]	; 0x3e
    hi2c->ErrorCode = HAL_I2C_ERROR_NONE;
 8000eb0:	2200      	movs	r2, #0
 8000eb2:	6422      	str	r2, [r4, #64]	; 0x40
    hi2c->XferOptions = I2C_NO_OPTION_FRAME;
 8000eb4:	f5a2 3280 	sub.w	r2, r2, #65536	; 0x10000
    hi2c->XferCount   = Size;
 8000eb8:	8567      	strh	r7, [r4, #42]	; 0x2a
    hi2c->XferOptions = I2C_NO_OPTION_FRAME;
 8000eba:	62e2      	str	r2, [r4, #44]	; 0x2c
    hi2c->XferSize    = hi2c->XferCount;
 8000ebc:	8d62      	ldrh	r2, [r4, #42]	; 0x2a
 8000ebe:	8522      	strh	r2, [r4, #40]	; 0x28
  uint32_t CurrentXferOptions = hi2c->XferOptions;
 8000ec0:	6ae2      	ldr	r2, [r4, #44]	; 0x2c
    hi2c->pBuffPtr    = pData;
 8000ec2:	f8c4 8024 	str.w	r8, [r4, #36]	; 0x24
  if((CurrentXferOptions == I2C_FIRST_AND_LAST_FRAME) || (CurrentXferOptions == I2C_FIRST_FRAME) || (CurrentXferOptions == I2C_NO_OPTION_FRAME))
 8000ec6:	2a04      	cmp	r2, #4
 8000ec8:	d004      	beq.n	8000ed4 <HAL_I2C_Master_Transmit+0x8c>
 8000eca:	2a01      	cmp	r2, #1
 8000ecc:	d002      	beq.n	8000ed4 <HAL_I2C_Master_Transmit+0x8c>
 8000ece:	f512 3f80 	cmn.w	r2, #65536	; 0x10000
 8000ed2:	d104      	bne.n	8000ede <HAL_I2C_Master_Transmit+0x96>
    hi2c->Instance->CR1 |= I2C_CR1_START;
 8000ed4:	681a      	ldr	r2, [r3, #0]
 8000ed6:	f442 7280 	orr.w	r2, r2, #256	; 0x100
 8000eda:	601a      	str	r2, [r3, #0]
 8000edc:	e002      	b.n	8000ee4 <HAL_I2C_Master_Transmit+0x9c>
  else if(hi2c->PreviousState == I2C_STATE_MASTER_BUSY_RX)
 8000ede:	6b22      	ldr	r2, [r4, #48]	; 0x30
 8000ee0:	2a12      	cmp	r2, #18
 8000ee2:	d0f7      	beq.n	8000ed4 <HAL_I2C_Master_Transmit+0x8c>
  if(I2C_WaitOnFlagUntilTimeout(hi2c, I2C_FLAG_SB, RESET, Timeout, Tickstart) != HAL_OK)
 8000ee4:	9600      	str	r6, [sp, #0]
 8000ee6:	9b0a      	ldr	r3, [sp, #40]	; 0x28
 8000ee8:	2200      	movs	r2, #0
 8000eea:	f04f 1101 	mov.w	r1, #65537	; 0x10001
 8000eee:	4620      	mov	r0, r4
 8000ef0:	f7ff fe31 	bl	8000b56 <I2C_WaitOnFlagUntilTimeout>
 8000ef4:	bb28      	cbnz	r0, 8000f42 <HAL_I2C_Master_Transmit+0xfa>
  if(hi2c->Init.AddressingMode == I2C_ADDRESSINGMODE_7BIT)
 8000ef6:	6923      	ldr	r3, [r4, #16]
 8000ef8:	6822      	ldr	r2, [r4, #0]
 8000efa:	f5b3 4f80 	cmp.w	r3, #16384	; 0x4000
 8000efe:	d112      	bne.n	8000f26 <HAL_I2C_Master_Transmit+0xde>
    hi2c->Instance->DR = I2C_7BIT_ADD_WRITE(DevAddress);
 8000f00:	f005 05fe 	and.w	r5, r5, #254	; 0xfe
 8000f04:	6115      	str	r5, [r2, #16]
  if(I2C_WaitOnMasterAddressFlagUntilTimeout(hi2c, I2C_FLAG_ADDR, Timeout, Tickstart) != HAL_OK)
 8000f06:	4633      	mov	r3, r6
 8000f08:	9a0a      	ldr	r2, [sp, #40]	; 0x28
 8000f0a:	4938      	ldr	r1, [pc, #224]	; (8000fec <HAL_I2C_Master_Transmit+0x1a4>)
 8000f0c:	4620      	mov	r0, r4
 8000f0e:	f7ff fde2 	bl	8000ad6 <I2C_WaitOnMasterAddressFlagUntilTimeout>
 8000f12:	4605      	mov	r5, r0
 8000f14:	b9a0      	cbnz	r0, 8000f40 <HAL_I2C_Master_Transmit+0xf8>
    __HAL_I2C_CLEAR_ADDRFLAG(hi2c);
 8000f16:	6823      	ldr	r3, [r4, #0]
 8000f18:	9003      	str	r0, [sp, #12]
 8000f1a:	695a      	ldr	r2, [r3, #20]
 8000f1c:	9203      	str	r2, [sp, #12]
 8000f1e:	699b      	ldr	r3, [r3, #24]
 8000f20:	9303      	str	r3, [sp, #12]
 8000f22:	9b03      	ldr	r3, [sp, #12]
    while(hi2c->XferSize > 0U)
 8000f24:	e050      	b.n	8000fc8 <HAL_I2C_Master_Transmit+0x180>
    hi2c->Instance->DR = I2C_10BIT_HEADER_WRITE(DevAddress);
 8000f26:	11eb      	asrs	r3, r5, #7
 8000f28:	f003 0306 	and.w	r3, r3, #6
 8000f2c:	f043 03f0 	orr.w	r3, r3, #240	; 0xf0
 8000f30:	6113      	str	r3, [r2, #16]
    if(I2C_WaitOnMasterAddressFlagUntilTimeout(hi2c, I2C_FLAG_ADD10, Timeout, Tickstart) != HAL_OK)
 8000f32:	492f      	ldr	r1, [pc, #188]	; (8000ff0 <HAL_I2C_Master_Transmit+0x1a8>)
 8000f34:	9a0a      	ldr	r2, [sp, #40]	; 0x28
 8000f36:	4633      	mov	r3, r6
 8000f38:	4620      	mov	r0, r4
 8000f3a:	f7ff fdcc 	bl	8000ad6 <I2C_WaitOnMasterAddressFlagUntilTimeout>
 8000f3e:	b148      	cbz	r0, 8000f54 <HAL_I2C_Master_Transmit+0x10c>
    if(hi2c->ErrorCode == HAL_I2C_ERROR_AF)
 8000f40:	6c23      	ldr	r3, [r4, #64]	; 0x40
      if(hi2c->ErrorCode == HAL_I2C_ERROR_AF)
 8000f42:	6c23      	ldr	r3, [r4, #64]	; 0x40
 8000f44:	2b04      	cmp	r3, #4
 8000f46:	f04f 0300 	mov.w	r3, #0
 8000f4a:	d107      	bne.n	8000f5c <HAL_I2C_Master_Transmit+0x114>
        __HAL_UNLOCK(hi2c);
 8000f4c:	f884 303c 	strb.w	r3, [r4, #60]	; 0x3c
          return HAL_ERROR;
 8000f50:	2501      	movs	r5, #1
 8000f52:	e787      	b.n	8000e64 <HAL_I2C_Master_Transmit+0x1c>
    hi2c->Instance->DR = I2C_10BIT_ADDRESS(DevAddress);
 8000f54:	6823      	ldr	r3, [r4, #0]
 8000f56:	b2ed      	uxtb	r5, r5
 8000f58:	611d      	str	r5, [r3, #16]
 8000f5a:	e7d4      	b.n	8000f06 <HAL_I2C_Master_Transmit+0xbe>
        __HAL_UNLOCK(hi2c);
 8000f5c:	f884 303c 	strb.w	r3, [r4, #60]	; 0x3c
          return HAL_TIMEOUT;
 8000f60:	2503      	movs	r5, #3
 8000f62:	e77f      	b.n	8000e64 <HAL_I2C_Master_Transmit+0x1c>
      if(I2C_WaitOnTXEFlagUntilTimeout(hi2c, Timeout, tickstart) != HAL_OK)
 8000f64:	4632      	mov	r2, r6
 8000f66:	990a      	ldr	r1, [sp, #40]	; 0x28
 8000f68:	4620      	mov	r0, r4
 8000f6a:	f7ff fe22 	bl	8000bb2 <I2C_WaitOnTXEFlagUntilTimeout>
 8000f6e:	b140      	cbz	r0, 8000f82 <HAL_I2C_Master_Transmit+0x13a>
        if(hi2c->ErrorCode == HAL_I2C_ERROR_AF)
 8000f70:	6c23      	ldr	r3, [r4, #64]	; 0x40
 8000f72:	2b04      	cmp	r3, #4
 8000f74:	d1f4      	bne.n	8000f60 <HAL_I2C_Master_Transmit+0x118>
          hi2c->Instance->CR1 |= I2C_CR1_STOP;
 8000f76:	6822      	ldr	r2, [r4, #0]
 8000f78:	6813      	ldr	r3, [r2, #0]
 8000f7a:	f443 7300 	orr.w	r3, r3, #512	; 0x200
 8000f7e:	6013      	str	r3, [r2, #0]
 8000f80:	e7e6      	b.n	8000f50 <HAL_I2C_Master_Transmit+0x108>
      hi2c->Instance->DR = (*hi2c->pBuffPtr++);
 8000f82:	6a61      	ldr	r1, [r4, #36]	; 0x24
 8000f84:	6820      	ldr	r0, [r4, #0]
      hi2c->XferSize--;
 8000f86:	8d22      	ldrh	r2, [r4, #40]	; 0x28
      hi2c->Instance->DR = (*hi2c->pBuffPtr++);
 8000f88:	1c4b      	adds	r3, r1, #1
 8000f8a:	6263      	str	r3, [r4, #36]	; 0x24
 8000f8c:	780b      	ldrb	r3, [r1, #0]
 8000f8e:	6103      	str	r3, [r0, #16]
      hi2c->XferCount--;
 8000f90:	8d63      	ldrh	r3, [r4, #42]	; 0x2a
 8000f92:	3b01      	subs	r3, #1
 8000f94:	b29b      	uxth	r3, r3
 8000f96:	8563      	strh	r3, [r4, #42]	; 0x2a
      if((__HAL_I2C_GET_FLAG(hi2c, I2C_FLAG_BTF) == SET) && (hi2c->XferSize != 0U))
 8000f98:	6947      	ldr	r7, [r0, #20]
      hi2c->XferSize--;
 8000f9a:	1e53      	subs	r3, r2, #1
 8000f9c:	b29b      	uxth	r3, r3
      if((__HAL_I2C_GET_FLAG(hi2c, I2C_FLAG_BTF) == SET) && (hi2c->XferSize != 0U))
 8000f9e:	077f      	lsls	r7, r7, #29
      hi2c->XferSize--;
 8000fa0:	8523      	strh	r3, [r4, #40]	; 0x28
      if((__HAL_I2C_GET_FLAG(hi2c, I2C_FLAG_BTF) == SET) && (hi2c->XferSize != 0U))
 8000fa2:	d50a      	bpl.n	8000fba <HAL_I2C_Master_Transmit+0x172>
 8000fa4:	b14b      	cbz	r3, 8000fba <HAL_I2C_Master_Transmit+0x172>
        hi2c->Instance->DR = (*hi2c->pBuffPtr++);
 8000fa6:	1c8b      	adds	r3, r1, #2
 8000fa8:	6263      	str	r3, [r4, #36]	; 0x24
 8000faa:	784b      	ldrb	r3, [r1, #1]
 8000fac:	6103      	str	r3, [r0, #16]
        hi2c->XferCount--;
 8000fae:	8d63      	ldrh	r3, [r4, #42]	; 0x2a
 8000fb0:	3b01      	subs	r3, #1
 8000fb2:	b29b      	uxth	r3, r3
        hi2c->XferSize--;
 8000fb4:	3a02      	subs	r2, #2
        hi2c->XferCount--;
 8000fb6:	8563      	strh	r3, [r4, #42]	; 0x2a
        hi2c->XferSize--;
 8000fb8:	8522      	strh	r2, [r4, #40]	; 0x28
      if(I2C_WaitOnBTFFlagUntilTimeout(hi2c, Timeout, tickstart) != HAL_OK)
 8000fba:	4632      	mov	r2, r6
 8000fbc:	990a      	ldr	r1, [sp, #40]	; 0x28
 8000fbe:	4620      	mov	r0, r4
 8000fc0:	f7ff fe4a 	bl	8000c58 <I2C_WaitOnBTFFlagUntilTimeout>
 8000fc4:	2800      	cmp	r0, #0
 8000fc6:	d1d3      	bne.n	8000f70 <HAL_I2C_Master_Transmit+0x128>
    while(hi2c->XferSize > 0U)
 8000fc8:	8d23      	ldrh	r3, [r4, #40]	; 0x28
 8000fca:	2b00      	cmp	r3, #0
 8000fcc:	d1ca      	bne.n	8000f64 <HAL_I2C_Master_Transmit+0x11c>
    hi2c->Instance->CR1 |= I2C_CR1_STOP;
 8000fce:	6821      	ldr	r1, [r4, #0]
 8000fd0:	680a      	ldr	r2, [r1, #0]
 8000fd2:	f442 7200 	orr.w	r2, r2, #512	; 0x200
 8000fd6:	600a      	str	r2, [r1, #0]
    hi2c->State = HAL_I2C_STATE_READY;
 8000fd8:	2220      	movs	r2, #32
 8000fda:	f884 203d 	strb.w	r2, [r4, #61]	; 0x3d
    __HAL_UNLOCK(hi2c);
 8000fde:	f884 303c 	strb.w	r3, [r4, #60]	; 0x3c
    hi2c->Mode = HAL_I2C_MODE_NONE;
 8000fe2:	f884 303e 	strb.w	r3, [r4, #62]	; 0x3e
    return HAL_OK;
 8000fe6:	e73d      	b.n	8000e64 <HAL_I2C_Master_Transmit+0x1c>
 8000fe8:	00100002 	.word	0x00100002
 8000fec:	00010002 	.word	0x00010002
 8000ff0:	00010008 	.word	0x00010008

08000ff4 <HAL_I2C_Master_Receive>:
{
 8000ff4:	e92d 43f0 	stmdb	sp!, {r4, r5, r6, r7, r8, r9, lr}
 8000ff8:	4604      	mov	r4, r0
 8000ffa:	b089      	sub	sp, #36	; 0x24
 8000ffc:	4698      	mov	r8, r3
 8000ffe:	460d      	mov	r5, r1
 8001000:	4691      	mov	r9, r2
 8001002:	9f10      	ldr	r7, [sp, #64]	; 0x40
  tickstart = HAL_GetTick();
 8001004:	f7ff fb26 	bl	8000654 <HAL_GetTick>
  if(hi2c->State == HAL_I2C_STATE_READY)
 8001008:	f894 303d 	ldrb.w	r3, [r4, #61]	; 0x3d
 800100c:	2b20      	cmp	r3, #32
  tickstart = HAL_GetTick();
 800100e:	4606      	mov	r6, r0
  if(hi2c->State == HAL_I2C_STATE_READY)
 8001010:	d004      	beq.n	800101c <HAL_I2C_Master_Receive+0x28>
    return HAL_BUSY;
 8001012:	2502      	movs	r5, #2
}
 8001014:	4628      	mov	r0, r5
 8001016:	b009      	add	sp, #36	; 0x24
 8001018:	e8bd 83f0 	ldmia.w	sp!, {r4, r5, r6, r7, r8, r9, pc}
    if(I2C_WaitOnFlagUntilTimeout(hi2c, I2C_FLAG_BUSY, SET, I2C_TIMEOUT_BUSY_FLAG, tickstart) != HAL_OK)
 800101c:	9000      	str	r0, [sp, #0]
 800101e:	2319      	movs	r3, #25
 8001020:	2201      	movs	r2, #1
 8001022:	499c      	ldr	r1, [pc, #624]	; (8001294 <HAL_I2C_Master_Receive+0x2a0>)
 8001024:	4620      	mov	r0, r4
 8001026:	f7ff fd96 	bl	8000b56 <I2C_WaitOnFlagUntilTimeout>
 800102a:	2800      	cmp	r0, #0
 800102c:	d1f1      	bne.n	8001012 <HAL_I2C_Master_Receive+0x1e>
    __HAL_LOCK(hi2c);
 800102e:	f894 303c 	ldrb.w	r3, [r4, #60]	; 0x3c
 8001032:	2b01      	cmp	r3, #1
 8001034:	d0ed      	beq.n	8001012 <HAL_I2C_Master_Receive+0x1e>
 8001036:	2301      	movs	r3, #1
 8001038:	f884 303c 	strb.w	r3, [r4, #60]	; 0x3c
    if((hi2c->Instance->CR1 & I2C_CR1_PE) != I2C_CR1_PE)
 800103c:	6823      	ldr	r3, [r4, #0]
 800103e:	681a      	ldr	r2, [r3, #0]
 8001040:	07d2      	lsls	r2, r2, #31
      __HAL_I2C_ENABLE(hi2c);
 8001042:	bf5e      	ittt	pl
 8001044:	681a      	ldrpl	r2, [r3, #0]
 8001046:	f042 0201 	orrpl.w	r2, r2, #1
 800104a:	601a      	strpl	r2, [r3, #0]
    hi2c->Instance->CR1 &= ~I2C_CR1_POS;
 800104c:	681a      	ldr	r2, [r3, #0]
 800104e:	f422 6200 	bic.w	r2, r2, #2048	; 0x800
 8001052:	601a      	str	r2, [r3, #0]
    hi2c->State       = HAL_I2C_STATE_BUSY_RX;
 8001054:	2222      	movs	r2, #34	; 0x22
 8001056:	f884 203d 	strb.w	r2, [r4, #61]	; 0x3d
    hi2c->Mode        = HAL_I2C_MODE_MASTER;
 800105a:	2210      	movs	r2, #16
 800105c:	f884 203e 	strb.w	r2, [r4, #62]	; 0x3e
    hi2c->ErrorCode   = HAL_I2C_ERROR_NONE;
 8001060:	2200      	movs	r2, #0
 8001062:	6422      	str	r2, [r4, #64]	; 0x40
    hi2c->XferOptions = I2C_NO_OPTION_FRAME;
 8001064:	f5a2 3280 	sub.w	r2, r2, #65536	; 0x10000
    hi2c->XferCount   = Size;
 8001068:	f8a4 802a 	strh.w	r8, [r4, #42]	; 0x2a
    hi2c->XferOptions = I2C_NO_OPTION_FRAME;
 800106c:	62e2      	str	r2, [r4, #44]	; 0x2c
    hi2c->XferSize    = hi2c->XferCount;
 800106e:	8d62      	ldrh	r2, [r4, #42]	; 0x2a
 8001070:	8522      	strh	r2, [r4, #40]	; 0x28
  uint32_t CurrentXferOptions = hi2c->XferOptions;
 8001072:	6ae2      	ldr	r2, [r4, #44]	; 0x2c
  hi2c->Instance->CR1 |= I2C_CR1_ACK;
 8001074:	6819      	ldr	r1, [r3, #0]
    hi2c->pBuffPtr    = pData;
 8001076:	f8c4 9024 	str.w	r9, [r4, #36]	; 0x24
  hi2c->Instance->CR1 |= I2C_CR1_ACK;
 800107a:	f441 6180 	orr.w	r1, r1, #1024	; 0x400
  if((CurrentXferOptions == I2C_FIRST_AND_LAST_FRAME) || (CurrentXferOptions == I2C_FIRST_FRAME)  || (CurrentXferOptions == I2C_NO_OPTION_FRAME))
 800107e:	2a04      	cmp	r2, #4
  hi2c->Instance->CR1 |= I2C_CR1_ACK;
 8001080:	6019      	str	r1, [r3, #0]
  if((CurrentXferOptions == I2C_FIRST_AND_LAST_FRAME) || (CurrentXferOptions == I2C_FIRST_FRAME)  || (CurrentXferOptions == I2C_NO_OPTION_FRAME))
 8001082:	d004      	beq.n	800108e <HAL_I2C_Master_Receive+0x9a>
 8001084:	2a01      	cmp	r2, #1
 8001086:	d002      	beq.n	800108e <HAL_I2C_Master_Receive+0x9a>
 8001088:	f512 3f80 	cmn.w	r2, #65536	; 0x10000
 800108c:	d104      	bne.n	8001098 <HAL_I2C_Master_Receive+0xa4>
    hi2c->Instance->CR1 |= I2C_CR1_START;
 800108e:	681a      	ldr	r2, [r3, #0]
 8001090:	f442 7280 	orr.w	r2, r2, #256	; 0x100
 8001094:	601a      	str	r2, [r3, #0]
 8001096:	e002      	b.n	800109e <HAL_I2C_Master_Receive+0xaa>
  else if(hi2c->PreviousState == I2C_STATE_MASTER_BUSY_TX)
 8001098:	6b22      	ldr	r2, [r4, #48]	; 0x30
 800109a:	2a11      	cmp	r2, #17
 800109c:	d0f7      	beq.n	800108e <HAL_I2C_Master_Receive+0x9a>
  if(I2C_WaitOnFlagUntilTimeout(hi2c, I2C_FLAG_SB, RESET, Timeout, Tickstart) != HAL_OK)
 800109e:	9600      	str	r6, [sp, #0]
 80010a0:	463b      	mov	r3, r7
 80010a2:	2200      	movs	r2, #0
 80010a4:	f04f 1101 	mov.w	r1, #65537	; 0x10001
 80010a8:	4620      	mov	r0, r4
 80010aa:	f7ff fd54 	bl	8000b56 <I2C_WaitOnFlagUntilTimeout>
 80010ae:	2800      	cmp	r0, #0
 80010b0:	d14a      	bne.n	8001148 <HAL_I2C_Master_Receive+0x154>
  if(hi2c->Init.AddressingMode == I2C_ADDRESSINGMODE_7BIT)
 80010b2:	6923      	ldr	r3, [r4, #16]
 80010b4:	f5b3 4f80 	cmp.w	r3, #16384	; 0x4000
 80010b8:	6823      	ldr	r3, [r4, #0]
 80010ba:	d136      	bne.n	800112a <HAL_I2C_Master_Receive+0x136>
    hi2c->Instance->DR = I2C_7BIT_ADD_READ(DevAddress);
 80010bc:	f045 0501 	orr.w	r5, r5, #1
 80010c0:	b2ed      	uxtb	r5, r5
 80010c2:	611d      	str	r5, [r3, #16]
  if(I2C_WaitOnMasterAddressFlagUntilTimeout(hi2c, I2C_FLAG_ADDR, Timeout, Tickstart) != HAL_OK)
 80010c4:	4633      	mov	r3, r6
 80010c6:	463a      	mov	r2, r7
 80010c8:	4973      	ldr	r1, [pc, #460]	; (8001298 <HAL_I2C_Master_Receive+0x2a4>)
 80010ca:	4620      	mov	r0, r4
 80010cc:	f7ff fd03 	bl	8000ad6 <I2C_WaitOnMasterAddressFlagUntilTimeout>
 80010d0:	4605      	mov	r5, r0
 80010d2:	2800      	cmp	r0, #0
 80010d4:	d137      	bne.n	8001146 <HAL_I2C_Master_Receive+0x152>
    if(hi2c->XferSize == 0U)
 80010d6:	8d22      	ldrh	r2, [r4, #40]	; 0x28
 80010d8:	6823      	ldr	r3, [r4, #0]
 80010da:	2a00      	cmp	r2, #0
 80010dc:	d066      	beq.n	80011ac <HAL_I2C_Master_Receive+0x1b8>
    else if(hi2c->XferSize == 1U)
 80010de:	2a01      	cmp	r2, #1
 80010e0:	d177      	bne.n	80011d2 <HAL_I2C_Master_Receive+0x1de>
      hi2c->Instance->CR1 &= ~I2C_CR1_ACK;
 80010e2:	681a      	ldr	r2, [r3, #0]
 80010e4:	f422 6280 	bic.w	r2, r2, #1024	; 0x400
 80010e8:	601a      	str	r2, [r3, #0]
      __HAL_I2C_CLEAR_ADDRFLAG(hi2c);
 80010ea:	9504      	str	r5, [sp, #16]
 80010ec:	695a      	ldr	r2, [r3, #20]
 80010ee:	9204      	str	r2, [sp, #16]
 80010f0:	699a      	ldr	r2, [r3, #24]
 80010f2:	9204      	str	r2, [sp, #16]
 80010f4:	9a04      	ldr	r2, [sp, #16]
      hi2c->Instance->CR1 |= I2C_CR1_STOP;
 80010f6:	681a      	ldr	r2, [r3, #0]
 80010f8:	f442 7200 	orr.w	r2, r2, #512	; 0x200
 80010fc:	601a      	str	r2, [r3, #0]
          if(I2C_WaitOnFlagUntilTimeout(hi2c, I2C_FLAG_BTF, RESET, Timeout, tickstart) != HAL_OK)
 80010fe:	f8df 81a0 	ldr.w	r8, [pc, #416]	; 80012a0 <HAL_I2C_Master_Receive+0x2ac>
    while(hi2c->XferSize > 0U)
 8001102:	8d23      	ldrh	r3, [r4, #40]	; 0x28
 8001104:	2b00      	cmp	r3, #0
 8001106:	d05b      	beq.n	80011c0 <HAL_I2C_Master_Receive+0x1cc>
      if(hi2c->XferSize <= 3U)
 8001108:	2b03      	cmp	r3, #3
 800110a:	f200 80cb 	bhi.w	80012a4 <HAL_I2C_Master_Receive+0x2b0>
        if(hi2c->XferSize == 1U)
 800110e:	2b01      	cmp	r3, #1
 8001110:	d17a      	bne.n	8001208 <HAL_I2C_Master_Receive+0x214>
          if(I2C_WaitOnRXNEFlagUntilTimeout(hi2c, Timeout, tickstart) != HAL_OK)      
 8001112:	4632      	mov	r2, r6
 8001114:	4639      	mov	r1, r7
 8001116:	4620      	mov	r0, r4
 8001118:	f7ff fd71 	bl	8000bfe <I2C_WaitOnRXNEFlagUntilTimeout>
 800111c:	2800      	cmp	r0, #0
 800111e:	f000 8090 	beq.w	8001242 <HAL_I2C_Master_Receive+0x24e>
            if(hi2c->ErrorCode == HAL_I2C_ERROR_TIMEOUT)
 8001122:	6c23      	ldr	r3, [r4, #64]	; 0x40
 8001124:	2b20      	cmp	r3, #32
 8001126:	d116      	bne.n	8001156 <HAL_I2C_Master_Receive+0x162>
 8001128:	e03e      	b.n	80011a8 <HAL_I2C_Master_Receive+0x1b4>
    hi2c->Instance->DR = I2C_10BIT_HEADER_WRITE(DevAddress);
 800112a:	ea4f 18e5 	mov.w	r8, r5, asr #7
 800112e:	f008 0806 	and.w	r8, r8, #6
 8001132:	f048 02f0 	orr.w	r2, r8, #240	; 0xf0
 8001136:	611a      	str	r2, [r3, #16]
    if(I2C_WaitOnMasterAddressFlagUntilTimeout(hi2c, I2C_FLAG_ADD10, Timeout, Tickstart) != HAL_OK)
 8001138:	4958      	ldr	r1, [pc, #352]	; (800129c <HAL_I2C_Master_Receive+0x2a8>)
 800113a:	4633      	mov	r3, r6
 800113c:	463a      	mov	r2, r7
 800113e:	4620      	mov	r0, r4
 8001140:	f7ff fcc9 	bl	8000ad6 <I2C_WaitOnMasterAddressFlagUntilTimeout>
 8001144:	b148      	cbz	r0, 800115a <HAL_I2C_Master_Receive+0x166>
    if(hi2c->ErrorCode == HAL_I2C_ERROR_AF)
 8001146:	6c23      	ldr	r3, [r4, #64]	; 0x40
      if(hi2c->ErrorCode == HAL_I2C_ERROR_AF)
 8001148:	6c23      	ldr	r3, [r4, #64]	; 0x40
 800114a:	2b04      	cmp	r3, #4
 800114c:	f04f 0300 	mov.w	r3, #0
 8001150:	d128      	bne.n	80011a4 <HAL_I2C_Master_Receive+0x1b0>
        __HAL_UNLOCK(hi2c);
 8001152:	f884 303c 	strb.w	r3, [r4, #60]	; 0x3c
              return HAL_ERROR;
 8001156:	2501      	movs	r5, #1
 8001158:	e75c      	b.n	8001014 <HAL_I2C_Master_Receive+0x20>
    hi2c->Instance->DR = I2C_10BIT_ADDRESS(DevAddress);
 800115a:	6823      	ldr	r3, [r4, #0]
    if(I2C_WaitOnMasterAddressFlagUntilTimeout(hi2c, I2C_FLAG_ADDR, Timeout, Tickstart) != HAL_OK)
 800115c:	494e      	ldr	r1, [pc, #312]	; (8001298 <HAL_I2C_Master_Receive+0x2a4>)
    hi2c->Instance->DR = I2C_10BIT_ADDRESS(DevAddress);
 800115e:	b2ed      	uxtb	r5, r5
 8001160:	611d      	str	r5, [r3, #16]
    if(I2C_WaitOnMasterAddressFlagUntilTimeout(hi2c, I2C_FLAG_ADDR, Timeout, Tickstart) != HAL_OK)
 8001162:	463a      	mov	r2, r7
 8001164:	4633      	mov	r3, r6
 8001166:	4620      	mov	r0, r4
 8001168:	f7ff fcb5 	bl	8000ad6 <I2C_WaitOnMasterAddressFlagUntilTimeout>
 800116c:	4602      	mov	r2, r0
 800116e:	2800      	cmp	r0, #0
 8001170:	d1e9      	bne.n	8001146 <HAL_I2C_Master_Receive+0x152>
    __HAL_I2C_CLEAR_ADDRFLAG(hi2c);
 8001172:	6823      	ldr	r3, [r4, #0]
 8001174:	9007      	str	r0, [sp, #28]
 8001176:	6959      	ldr	r1, [r3, #20]
 8001178:	9107      	str	r1, [sp, #28]
 800117a:	6999      	ldr	r1, [r3, #24]
 800117c:	9107      	str	r1, [sp, #28]
 800117e:	9907      	ldr	r1, [sp, #28]
    hi2c->Instance->CR1 |= I2C_CR1_START;
 8001180:	6819      	ldr	r1, [r3, #0]
 8001182:	f441 7180 	orr.w	r1, r1, #256	; 0x100
 8001186:	6019      	str	r1, [r3, #0]
    if(I2C_WaitOnFlagUntilTimeout(hi2c, I2C_FLAG_SB, RESET, Timeout, Tickstart) != HAL_OK)
 8001188:	4620      	mov	r0, r4
 800118a:	9600      	str	r6, [sp, #0]
 800118c:	463b      	mov	r3, r7
 800118e:	f04f 1101 	mov.w	r1, #65537	; 0x10001
 8001192:	f7ff fce0 	bl	8000b56 <I2C_WaitOnFlagUntilTimeout>
 8001196:	2800      	cmp	r0, #0
 8001198:	d1d6      	bne.n	8001148 <HAL_I2C_Master_Receive+0x154>
    hi2c->Instance->DR = I2C_10BIT_HEADER_READ(DevAddress);
 800119a:	6822      	ldr	r2, [r4, #0]
 800119c:	f048 03f1 	orr.w	r3, r8, #241	; 0xf1
 80011a0:	6113      	str	r3, [r2, #16]
 80011a2:	e78f      	b.n	80010c4 <HAL_I2C_Master_Receive+0xd0>
        __HAL_UNLOCK(hi2c);
 80011a4:	f884 303c 	strb.w	r3, [r4, #60]	; 0x3c
              return HAL_TIMEOUT;
 80011a8:	2503      	movs	r5, #3
 80011aa:	e733      	b.n	8001014 <HAL_I2C_Master_Receive+0x20>
      __HAL_I2C_CLEAR_ADDRFLAG(hi2c);
 80011ac:	9503      	str	r5, [sp, #12]
 80011ae:	695a      	ldr	r2, [r3, #20]
 80011b0:	9203      	str	r2, [sp, #12]
 80011b2:	699a      	ldr	r2, [r3, #24]
 80011b4:	9203      	str	r2, [sp, #12]
 80011b6:	9a03      	ldr	r2, [sp, #12]
      hi2c->Instance->CR1 |= I2C_CR1_STOP;
 80011b8:	681a      	ldr	r2, [r3, #0]
 80011ba:	f442 7200 	orr.w	r2, r2, #512	; 0x200
 80011be:	601a      	str	r2, [r3, #0]
    hi2c->State = HAL_I2C_STATE_READY;
 80011c0:	2320      	movs	r3, #32
 80011c2:	f884 303d 	strb.w	r3, [r4, #61]	; 0x3d
    hi2c->Mode = HAL_I2C_MODE_NONE;
 80011c6:	2300      	movs	r3, #0
 80011c8:	f884 303e 	strb.w	r3, [r4, #62]	; 0x3e
    __HAL_UNLOCK(hi2c);
 80011cc:	f884 303c 	strb.w	r3, [r4, #60]	; 0x3c
    return HAL_OK;
 80011d0:	e720      	b.n	8001014 <HAL_I2C_Master_Receive+0x20>
    else if(hi2c->XferSize == 2U)
 80011d2:	2a02      	cmp	r2, #2
      hi2c->Instance->CR1 &= ~I2C_CR1_ACK;
 80011d4:	681a      	ldr	r2, [r3, #0]
    else if(hi2c->XferSize == 2U)
 80011d6:	d10d      	bne.n	80011f4 <HAL_I2C_Master_Receive+0x200>
      hi2c->Instance->CR1 &= ~I2C_CR1_ACK;
 80011d8:	f422 6280 	bic.w	r2, r2, #1024	; 0x400
 80011dc:	601a      	str	r2, [r3, #0]
      hi2c->Instance->CR1 |= I2C_CR1_POS;
 80011de:	681a      	ldr	r2, [r3, #0]
 80011e0:	f442 6200 	orr.w	r2, r2, #2048	; 0x800
 80011e4:	601a      	str	r2, [r3, #0]
      __HAL_I2C_CLEAR_ADDRFLAG(hi2c);
 80011e6:	9505      	str	r5, [sp, #20]
 80011e8:	695a      	ldr	r2, [r3, #20]
 80011ea:	9205      	str	r2, [sp, #20]
 80011ec:	699b      	ldr	r3, [r3, #24]
 80011ee:	9305      	str	r3, [sp, #20]
 80011f0:	9b05      	ldr	r3, [sp, #20]
 80011f2:	e784      	b.n	80010fe <HAL_I2C_Master_Receive+0x10a>
      hi2c->Instance->CR1 |= I2C_CR1_ACK;
 80011f4:	f442 6280 	orr.w	r2, r2, #1024	; 0x400
 80011f8:	601a      	str	r2, [r3, #0]
      __HAL_I2C_CLEAR_ADDRFLAG(hi2c);
 80011fa:	9506      	str	r5, [sp, #24]
 80011fc:	695a      	ldr	r2, [r3, #20]
 80011fe:	9206      	str	r2, [sp, #24]
 8001200:	699b      	ldr	r3, [r3, #24]
 8001202:	9306      	str	r3, [sp, #24]
 8001204:	9b06      	ldr	r3, [sp, #24]
 8001206:	e77a      	b.n	80010fe <HAL_I2C_Master_Receive+0x10a>
        else if(hi2c->XferSize == 2U)
 8001208:	2b02      	cmp	r3, #2
          if(I2C_WaitOnFlagUntilTimeout(hi2c, I2C_FLAG_BTF, RESET, Timeout, tickstart) != HAL_OK)
 800120a:	9600      	str	r6, [sp, #0]
 800120c:	463b      	mov	r3, r7
 800120e:	f04f 0200 	mov.w	r2, #0
 8001212:	4641      	mov	r1, r8
 8001214:	4620      	mov	r0, r4
        else if(hi2c->XferSize == 2U)
 8001216:	d122      	bne.n	800125e <HAL_I2C_Master_Receive+0x26a>
          if(I2C_WaitOnFlagUntilTimeout(hi2c, I2C_FLAG_BTF, RESET, Timeout, tickstart) != HAL_OK)
 8001218:	f7ff fc9d 	bl	8000b56 <I2C_WaitOnFlagUntilTimeout>
 800121c:	2800      	cmp	r0, #0
 800121e:	d1c3      	bne.n	80011a8 <HAL_I2C_Master_Receive+0x1b4>
          hi2c->Instance->CR1 |= I2C_CR1_STOP;
 8001220:	6823      	ldr	r3, [r4, #0]
 8001222:	681a      	ldr	r2, [r3, #0]
 8001224:	f442 7200 	orr.w	r2, r2, #512	; 0x200
 8001228:	601a      	str	r2, [r3, #0]
          (*hi2c->pBuffPtr++) = hi2c->Instance->DR;
 800122a:	6a62      	ldr	r2, [r4, #36]	; 0x24
 800122c:	691b      	ldr	r3, [r3, #16]
 800122e:	1c51      	adds	r1, r2, #1
 8001230:	6261      	str	r1, [r4, #36]	; 0x24
 8001232:	7013      	strb	r3, [r2, #0]
          hi2c->XferSize--;
 8001234:	8d23      	ldrh	r3, [r4, #40]	; 0x28
 8001236:	3b01      	subs	r3, #1
 8001238:	8523      	strh	r3, [r4, #40]	; 0x28
          hi2c->XferCount--;
 800123a:	8d63      	ldrh	r3, [r4, #42]	; 0x2a
 800123c:	3b01      	subs	r3, #1
 800123e:	b29b      	uxth	r3, r3
 8001240:	8563      	strh	r3, [r4, #42]	; 0x2a
          (*hi2c->pBuffPtr++) = hi2c->Instance->DR;
 8001242:	6a63      	ldr	r3, [r4, #36]	; 0x24
 8001244:	1c5a      	adds	r2, r3, #1
 8001246:	6262      	str	r2, [r4, #36]	; 0x24
 8001248:	6822      	ldr	r2, [r4, #0]
          (*hi2c->pBuffPtr++) = hi2c->Instance->DR;
 800124a:	6912      	ldr	r2, [r2, #16]
 800124c:	701a      	strb	r2, [r3, #0]
          hi2c->XferSize--;
 800124e:	8d23      	ldrh	r3, [r4, #40]	; 0x28
 8001250:	3b01      	subs	r3, #1
 8001252:	8523      	strh	r3, [r4, #40]	; 0x28
          hi2c->XferCount--;
 8001254:	8d63      	ldrh	r3, [r4, #42]	; 0x2a
 8001256:	3b01      	subs	r3, #1
 8001258:	b29b      	uxth	r3, r3
 800125a:	8563      	strh	r3, [r4, #42]	; 0x2a
 800125c:	e751      	b.n	8001102 <HAL_I2C_Master_Receive+0x10e>
          if(I2C_WaitOnFlagUntilTimeout(hi2c, I2C_FLAG_BTF, RESET, Timeout, tickstart) != HAL_OK)
 800125e:	f7ff fc7a 	bl	8000b56 <I2C_WaitOnFlagUntilTimeout>
 8001262:	4602      	mov	r2, r0
 8001264:	2800      	cmp	r0, #0
 8001266:	d19f      	bne.n	80011a8 <HAL_I2C_Master_Receive+0x1b4>
          hi2c->Instance->CR1 &= ~I2C_CR1_ACK;
 8001268:	6823      	ldr	r3, [r4, #0]
 800126a:	6819      	ldr	r1, [r3, #0]
 800126c:	f421 6180 	bic.w	r1, r1, #1024	; 0x400
 8001270:	6019      	str	r1, [r3, #0]
          (*hi2c->pBuffPtr++) = hi2c->Instance->DR;
 8001272:	6a61      	ldr	r1, [r4, #36]	; 0x24
 8001274:	691b      	ldr	r3, [r3, #16]
 8001276:	1c48      	adds	r0, r1, #1
 8001278:	6260      	str	r0, [r4, #36]	; 0x24
 800127a:	700b      	strb	r3, [r1, #0]
          hi2c->XferSize--;
 800127c:	8d23      	ldrh	r3, [r4, #40]	; 0x28
          if(I2C_WaitOnFlagUntilTimeout(hi2c, I2C_FLAG_BTF, RESET, Timeout, tickstart) != HAL_OK)
 800127e:	9600      	str	r6, [sp, #0]
          hi2c->XferSize--;
 8001280:	3b01      	subs	r3, #1
 8001282:	8523      	strh	r3, [r4, #40]	; 0x28
          hi2c->XferCount--;
 8001284:	8d63      	ldrh	r3, [r4, #42]	; 0x2a
 8001286:	3b01      	subs	r3, #1
 8001288:	b29b      	uxth	r3, r3
 800128a:	8563      	strh	r3, [r4, #42]	; 0x2a
          if(I2C_WaitOnFlagUntilTimeout(hi2c, I2C_FLAG_BTF, RESET, Timeout, tickstart) != HAL_OK)
 800128c:	4641      	mov	r1, r8
 800128e:	463b      	mov	r3, r7
 8001290:	4620      	mov	r0, r4
 8001292:	e7c1      	b.n	8001218 <HAL_I2C_Master_Receive+0x224>
 8001294:	00100002 	.word	0x00100002
 8001298:	00010002 	.word	0x00010002
 800129c:	00010008 	.word	0x00010008
 80012a0:	00010004 	.word	0x00010004
        if(I2C_WaitOnRXNEFlagUntilTimeout(hi2c, Timeout, tickstart) != HAL_OK)      
 80012a4:	4632      	mov	r2, r6
 80012a6:	4639      	mov	r1, r7
 80012a8:	4620      	mov	r0, r4
 80012aa:	f7ff fca8 	bl	8000bfe <I2C_WaitOnRXNEFlagUntilTimeout>
 80012ae:	2800      	cmp	r0, #0
 80012b0:	f47f af37 	bne.w	8001122 <HAL_I2C_Master_Receive+0x12e>
        (*hi2c->pBuffPtr++) = hi2c->Instance->DR;
 80012b4:	6a63      	ldr	r3, [r4, #36]	; 0x24
 80012b6:	1c5a      	adds	r2, r3, #1
 80012b8:	6262      	str	r2, [r4, #36]	; 0x24
 80012ba:	6822      	ldr	r2, [r4, #0]
 80012bc:	6912      	ldr	r2, [r2, #16]
 80012be:	701a      	strb	r2, [r3, #0]
        hi2c->XferSize--;
 80012c0:	8d23      	ldrh	r3, [r4, #40]	; 0x28
        if(__HAL_I2C_GET_FLAG(hi2c, I2C_FLAG_BTF) == SET)
 80012c2:	6822      	ldr	r2, [r4, #0]
        hi2c->XferSize--;
 80012c4:	3b01      	subs	r3, #1
 80012c6:	8523      	strh	r3, [r4, #40]	; 0x28
        hi2c->XferCount--;
 80012c8:	8d63      	ldrh	r3, [r4, #42]	; 0x2a
 80012ca:	3b01      	subs	r3, #1
 80012cc:	b29b      	uxth	r3, r3
 80012ce:	8563      	strh	r3, [r4, #42]	; 0x2a
        if(__HAL_I2C_GET_FLAG(hi2c, I2C_FLAG_BTF) == SET)
 80012d0:	6953      	ldr	r3, [r2, #20]
 80012d2:	075b      	lsls	r3, r3, #29
 80012d4:	f57f af15 	bpl.w	8001102 <HAL_I2C_Master_Receive+0x10e>
          (*hi2c->pBuffPtr++) = hi2c->Instance->DR;
 80012d8:	6a63      	ldr	r3, [r4, #36]	; 0x24
 80012da:	1c59      	adds	r1, r3, #1
 80012dc:	6261      	str	r1, [r4, #36]	; 0x24
 80012de:	e7b4      	b.n	800124a <HAL_I2C_Master_Receive+0x256>

080012e0 <HAL_RCC_ClockConfig>:
  *         HPRE[3:0] bits to ensure that HCLK not exceed the maximum allowed frequency
  *         (for more details refer to section above "Initialization/de-initialization functions")
  * @retval None
  */
HAL_StatusTypeDef HAL_RCC_ClockConfig(RCC_ClkInitTypeDef  *RCC_ClkInitStruct, uint32_t FLatency)
{
 80012e0:	e92d 41f0 	stmdb	sp!, {r4, r5, r6, r7, r8, lr}
 80012e4:	460d      	mov	r5, r1
  uint32_t tickstart;

  /* Check Null pointer */
  if(RCC_ClkInitStruct == NULL)
 80012e6:	4604      	mov	r4, r0
 80012e8:	b910      	cbnz	r0, 80012f0 <HAL_RCC_ClockConfig+0x10>
  {
    return HAL_ERROR;
 80012ea:	2001      	movs	r0, #1
 80012ec:	e8bd 81f0 	ldmia.w	sp!, {r4, r5, r6, r7, r8, pc}
  }

  /* Check the parameters */
  assert_param(IS_RCC_CLOCKTYPE(RCC_ClkInitStruct->ClockType));
 80012f0:	6803      	ldr	r3, [r0, #0]
 80012f2:	3b01      	subs	r3, #1
 80012f4:	2b0e      	cmp	r3, #14
 80012f6:	d904      	bls.n	8001302 <HAL_RCC_ClockConfig+0x22>
 80012f8:	f44f 7114 	mov.w	r1, #592	; 0x250
 80012fc:	486d      	ldr	r0, [pc, #436]	; (80014b4 <HAL_RCC_ClockConfig+0x1d4>)
 80012fe:	f001 f8fb 	bl	80024f8 <assert_failed>
  assert_param(IS_FLASH_LATENCY(FLatency));
 8001302:	2d0f      	cmp	r5, #15
 8001304:	d904      	bls.n	8001310 <HAL_RCC_ClockConfig+0x30>
 8001306:	f240 2151 	movw	r1, #593	; 0x251
 800130a:	486a      	ldr	r0, [pc, #424]	; (80014b4 <HAL_RCC_ClockConfig+0x1d4>)
 800130c:	f001 f8f4 	bl	80024f8 <assert_failed>
  /* To correctly read data from FLASH memory, the number of wait states (LATENCY)
    must be correctly programmed according to the frequency of the CPU clock
    (HCLK) and the supply voltage of the device. */

  /* Increasing the number of wait states because of higher CPU frequency */
  if(FLatency > __HAL_FLASH_GET_LATENCY())
 8001310:	4b69      	ldr	r3, [pc, #420]	; (80014b8 <HAL_RCC_ClockConfig+0x1d8>)
 8001312:	681a      	ldr	r2, [r3, #0]
 8001314:	f002 020f 	and.w	r2, r2, #15
 8001318:	4295      	cmp	r5, r2
 800131a:	d83d      	bhi.n	8001398 <HAL_RCC_ClockConfig+0xb8>
      return HAL_ERROR;
    }
  }

  /*-------------------------- HCLK Configuration --------------------------*/
  if(((RCC_ClkInitStruct->ClockType) & RCC_CLOCKTYPE_HCLK) == RCC_CLOCKTYPE_HCLK)
 800131c:	6822      	ldr	r2, [r4, #0]
 800131e:	0796      	lsls	r6, r2, #30
 8001320:	d442      	bmi.n	80013a8 <HAL_RCC_ClockConfig+0xc8>
    assert_param(IS_RCC_HCLK(RCC_ClkInitStruct->AHBCLKDivider));
    MODIFY_REG(RCC->CFGR, RCC_CFGR_HPRE, RCC_ClkInitStruct->AHBCLKDivider);
  }

  /*------------------------- SYSCLK Configuration ---------------------------*/
  if(((RCC_ClkInitStruct->ClockType) & RCC_CLOCKTYPE_SYSCLK) == RCC_CLOCKTYPE_SYSCLK)
 8001322:	6823      	ldr	r3, [r4, #0]
 8001324:	07d9      	lsls	r1, r3, #31
 8001326:	d46c      	bmi.n	8001402 <HAL_RCC_ClockConfig+0x122>
      }
    }
  }

  /* Decreasing the number of wait states because of lower CPU frequency */
  if(FLatency < __HAL_FLASH_GET_LATENCY())
 8001328:	4b63      	ldr	r3, [pc, #396]	; (80014b8 <HAL_RCC_ClockConfig+0x1d8>)
 800132a:	681a      	ldr	r2, [r3, #0]
 800132c:	f002 020f 	and.w	r2, r2, #15
 8001330:	4295      	cmp	r5, r2
 8001332:	f0c0 809c 	bcc.w	800146e <HAL_RCC_ClockConfig+0x18e>
      return HAL_ERROR;
    }
  }

  /*-------------------------- PCLK1 Configuration ---------------------------*/
  if(((RCC_ClkInitStruct->ClockType) & RCC_CLOCKTYPE_PCLK1) == RCC_CLOCKTYPE_PCLK1)
 8001336:	6823      	ldr	r3, [r4, #0]
 8001338:	075a      	lsls	r2, r3, #29
 800133a:	f100 80a1 	bmi.w	8001480 <HAL_RCC_ClockConfig+0x1a0>
    assert_param(IS_RCC_PCLK(RCC_ClkInitStruct->APB1CLKDivider));
    MODIFY_REG(RCC->CFGR, RCC_CFGR_PPRE1, RCC_ClkInitStruct->APB1CLKDivider);
  }

  /*-------------------------- PCLK2 Configuration ---------------------------*/
  if(((RCC_ClkInitStruct->ClockType) & RCC_CLOCKTYPE_PCLK2) == RCC_CLOCKTYPE_PCLK2)
 800133e:	6823      	ldr	r3, [r4, #0]
 8001340:	071b      	lsls	r3, r3, #28
 8001342:	d518      	bpl.n	8001376 <HAL_RCC_ClockConfig+0x96>
  {
    assert_param(IS_RCC_PCLK(RCC_ClkInitStruct->APB2CLKDivider));
 8001344:	6923      	ldr	r3, [r4, #16]
 8001346:	f433 5280 	bics.w	r2, r3, #4096	; 0x1000
 800134a:	d00c      	beq.n	8001366 <HAL_RCC_ClockConfig+0x86>
 800134c:	f423 6200 	bic.w	r2, r3, #2048	; 0x800
 8001350:	f5b2 5fa0 	cmp.w	r2, #5120	; 0x1400
 8001354:	d007      	beq.n	8001366 <HAL_RCC_ClockConfig+0x86>
 8001356:	f5b3 5fc0 	cmp.w	r3, #6144	; 0x1800
 800135a:	d004      	beq.n	8001366 <HAL_RCC_ClockConfig+0x86>
 800135c:	f44f 7130 	mov.w	r1, #704	; 0x2c0
 8001360:	4854      	ldr	r0, [pc, #336]	; (80014b4 <HAL_RCC_ClockConfig+0x1d4>)
 8001362:	f001 f8c9 	bl	80024f8 <assert_failed>
    MODIFY_REG(RCC->CFGR, RCC_CFGR_PPRE2, ((RCC_ClkInitStruct->APB2CLKDivider) << 3U));
 8001366:	4a55      	ldr	r2, [pc, #340]	; (80014bc <HAL_RCC_ClockConfig+0x1dc>)
 8001368:	6921      	ldr	r1, [r4, #16]
 800136a:	6893      	ldr	r3, [r2, #8]
 800136c:	f423 4360 	bic.w	r3, r3, #57344	; 0xe000
 8001370:	ea43 03c1 	orr.w	r3, r3, r1, lsl #3
 8001374:	6093      	str	r3, [r2, #8]
  }

  /* Update the SystemCoreClock global variable */
  SystemCoreClock = HAL_RCC_GetSysClockFreq() >> AHBPrescTable[(RCC->CFGR & RCC_CFGR_HPRE)>> RCC_CFGR_HPRE_Pos];
 8001376:	f000 f8cd 	bl	8001514 <HAL_RCC_GetSysClockFreq>
 800137a:	4b50      	ldr	r3, [pc, #320]	; (80014bc <HAL_RCC_ClockConfig+0x1dc>)
 800137c:	4a50      	ldr	r2, [pc, #320]	; (80014c0 <HAL_RCC_ClockConfig+0x1e0>)
 800137e:	689b      	ldr	r3, [r3, #8]
 8001380:	f3c3 1303 	ubfx	r3, r3, #4, #4
 8001384:	5cd3      	ldrb	r3, [r2, r3]
 8001386:	40d8      	lsrs	r0, r3
 8001388:	4b4e      	ldr	r3, [pc, #312]	; (80014c4 <HAL_RCC_ClockConfig+0x1e4>)
 800138a:	6018      	str	r0, [r3, #0]

  /* Configure the source of time base considering new system clocks settings */
  HAL_InitTick (TICK_INT_PRIORITY);
 800138c:	2000      	movs	r0, #0
 800138e:	f7ff f917 	bl	80005c0 <HAL_InitTick>

  return HAL_OK;
 8001392:	2000      	movs	r0, #0
 8001394:	e8bd 81f0 	ldmia.w	sp!, {r4, r5, r6, r7, r8, pc}
    __HAL_FLASH_SET_LATENCY(FLatency);
 8001398:	b2ea      	uxtb	r2, r5
 800139a:	701a      	strb	r2, [r3, #0]
    if(__HAL_FLASH_GET_LATENCY() != FLatency)
 800139c:	681b      	ldr	r3, [r3, #0]
 800139e:	f003 030f 	and.w	r3, r3, #15
 80013a2:	429d      	cmp	r5, r3
 80013a4:	d1a1      	bne.n	80012ea <HAL_RCC_ClockConfig+0xa>
 80013a6:	e7b9      	b.n	800131c <HAL_RCC_ClockConfig+0x3c>
 80013a8:	4b44      	ldr	r3, [pc, #272]	; (80014bc <HAL_RCC_ClockConfig+0x1dc>)
    if(((RCC_ClkInitStruct->ClockType) & RCC_CLOCKTYPE_PCLK1) == RCC_CLOCKTYPE_PCLK1)
 80013aa:	f012 0f04 	tst.w	r2, #4
      MODIFY_REG(RCC->CFGR, RCC_CFGR_PPRE1, RCC_HCLK_DIV16);
 80013ae:	bf1e      	ittt	ne
 80013b0:	6899      	ldrne	r1, [r3, #8]
 80013b2:	f441 51e0 	orrne.w	r1, r1, #7168	; 0x1c00
 80013b6:	6099      	strne	r1, [r3, #8]
    if(((RCC_ClkInitStruct->ClockType) & RCC_CLOCKTYPE_PCLK2) == RCC_CLOCKTYPE_PCLK2)
 80013b8:	0710      	lsls	r0, r2, #28
      MODIFY_REG(RCC->CFGR, RCC_CFGR_PPRE2, (RCC_HCLK_DIV16 << 3));
 80013ba:	bf42      	ittt	mi
 80013bc:	689a      	ldrmi	r2, [r3, #8]
 80013be:	f442 4260 	orrmi.w	r2, r2, #57344	; 0xe000
 80013c2:	609a      	strmi	r2, [r3, #8]
    assert_param(IS_RCC_HCLK(RCC_ClkInitStruct->AHBCLKDivider));
 80013c4:	68a3      	ldr	r3, [r4, #8]
 80013c6:	f033 0280 	bics.w	r2, r3, #128	; 0x80
 80013ca:	d012      	beq.n	80013f2 <HAL_RCC_ClockConfig+0x112>
 80013cc:	f023 0220 	bic.w	r2, r3, #32
 80013d0:	2a90      	cmp	r2, #144	; 0x90
 80013d2:	d00e      	beq.n	80013f2 <HAL_RCC_ClockConfig+0x112>
 80013d4:	f023 0240 	bic.w	r2, r3, #64	; 0x40
 80013d8:	2aa0      	cmp	r2, #160	; 0xa0
 80013da:	d00a      	beq.n	80013f2 <HAL_RCC_ClockConfig+0x112>
 80013dc:	f023 0210 	bic.w	r2, r3, #16
 80013e0:	2ac0      	cmp	r2, #192	; 0xc0
 80013e2:	d006      	beq.n	80013f2 <HAL_RCC_ClockConfig+0x112>
 80013e4:	2bf0      	cmp	r3, #240	; 0xf0
 80013e6:	d004      	beq.n	80013f2 <HAL_RCC_ClockConfig+0x112>
 80013e8:	f44f 711d 	mov.w	r1, #628	; 0x274
 80013ec:	4831      	ldr	r0, [pc, #196]	; (80014b4 <HAL_RCC_ClockConfig+0x1d4>)
 80013ee:	f001 f883 	bl	80024f8 <assert_failed>
    MODIFY_REG(RCC->CFGR, RCC_CFGR_HPRE, RCC_ClkInitStruct->AHBCLKDivider);
 80013f2:	4a32      	ldr	r2, [pc, #200]	; (80014bc <HAL_RCC_ClockConfig+0x1dc>)
 80013f4:	68a1      	ldr	r1, [r4, #8]
 80013f6:	6893      	ldr	r3, [r2, #8]
 80013f8:	f023 03f0 	bic.w	r3, r3, #240	; 0xf0
 80013fc:	430b      	orrs	r3, r1
 80013fe:	6093      	str	r3, [r2, #8]
 8001400:	e78f      	b.n	8001322 <HAL_RCC_ClockConfig+0x42>
    assert_param(IS_RCC_SYSCLKSOURCE(RCC_ClkInitStruct->SYSCLKSource));
 8001402:	6863      	ldr	r3, [r4, #4]
 8001404:	2b03      	cmp	r3, #3
 8001406:	d904      	bls.n	8001412 <HAL_RCC_ClockConfig+0x132>
 8001408:	f240 217b 	movw	r1, #635	; 0x27b
 800140c:	4829      	ldr	r0, [pc, #164]	; (80014b4 <HAL_RCC_ClockConfig+0x1d4>)
 800140e:	f001 f873 	bl	80024f8 <assert_failed>
    if(RCC_ClkInitStruct->SYSCLKSource == RCC_SYSCLKSOURCE_HSE)
 8001412:	6862      	ldr	r2, [r4, #4]
 8001414:	4b29      	ldr	r3, [pc, #164]	; (80014bc <HAL_RCC_ClockConfig+0x1dc>)
 8001416:	2a01      	cmp	r2, #1
 8001418:	d11f      	bne.n	800145a <HAL_RCC_ClockConfig+0x17a>
      if(__HAL_RCC_GET_FLAG(RCC_FLAG_HSERDY) == RESET)
 800141a:	681b      	ldr	r3, [r3, #0]
 800141c:	f413 3f00 	tst.w	r3, #131072	; 0x20000
      if(__HAL_RCC_GET_FLAG(RCC_FLAG_HSIRDY) == RESET)
 8001420:	f43f af63 	beq.w	80012ea <HAL_RCC_ClockConfig+0xa>
    __HAL_RCC_SYSCLK_CONFIG(RCC_ClkInitStruct->SYSCLKSource);
 8001424:	4e25      	ldr	r6, [pc, #148]	; (80014bc <HAL_RCC_ClockConfig+0x1dc>)
 8001426:	68b3      	ldr	r3, [r6, #8]
 8001428:	f023 0303 	bic.w	r3, r3, #3
 800142c:	4313      	orrs	r3, r2
 800142e:	60b3      	str	r3, [r6, #8]
    tickstart = HAL_GetTick();
 8001430:	f7ff f910 	bl	8000654 <HAL_GetTick>
      if ((HAL_GetTick() - tickstart) > CLOCKSWITCH_TIMEOUT_VALUE)
 8001434:	f241 3888 	movw	r8, #5000	; 0x1388
    tickstart = HAL_GetTick();
 8001438:	4607      	mov	r7, r0
    while (__HAL_RCC_GET_SYSCLK_SOURCE() != (RCC_ClkInitStruct->SYSCLKSource << RCC_CFGR_SWS_Pos))
 800143a:	68b3      	ldr	r3, [r6, #8]
 800143c:	6862      	ldr	r2, [r4, #4]
 800143e:	f003 030c 	and.w	r3, r3, #12
 8001442:	ebb3 0f82 	cmp.w	r3, r2, lsl #2
 8001446:	f43f af6f 	beq.w	8001328 <HAL_RCC_ClockConfig+0x48>
      if ((HAL_GetTick() - tickstart) > CLOCKSWITCH_TIMEOUT_VALUE)
 800144a:	f7ff f903 	bl	8000654 <HAL_GetTick>
 800144e:	1bc0      	subs	r0, r0, r7
 8001450:	4540      	cmp	r0, r8
 8001452:	d9f2      	bls.n	800143a <HAL_RCC_ClockConfig+0x15a>
        return HAL_TIMEOUT;
 8001454:	2003      	movs	r0, #3
}
 8001456:	e8bd 81f0 	ldmia.w	sp!, {r4, r5, r6, r7, r8, pc}
    else if((RCC_ClkInitStruct->SYSCLKSource == RCC_SYSCLKSOURCE_PLLCLK)   ||
 800145a:	1e91      	subs	r1, r2, #2
 800145c:	2901      	cmp	r1, #1
      if(__HAL_RCC_GET_FLAG(RCC_FLAG_PLLRDY) == RESET)
 800145e:	681b      	ldr	r3, [r3, #0]
    else if((RCC_ClkInitStruct->SYSCLKSource == RCC_SYSCLKSOURCE_PLLCLK)   ||
 8001460:	d802      	bhi.n	8001468 <HAL_RCC_ClockConfig+0x188>
      if(__HAL_RCC_GET_FLAG(RCC_FLAG_PLLRDY) == RESET)
 8001462:	f013 7f00 	tst.w	r3, #33554432	; 0x2000000
 8001466:	e7db      	b.n	8001420 <HAL_RCC_ClockConfig+0x140>
      if(__HAL_RCC_GET_FLAG(RCC_FLAG_HSIRDY) == RESET)
 8001468:	f013 0f02 	tst.w	r3, #2
 800146c:	e7d8      	b.n	8001420 <HAL_RCC_ClockConfig+0x140>
    __HAL_FLASH_SET_LATENCY(FLatency);
 800146e:	b2ea      	uxtb	r2, r5
 8001470:	701a      	strb	r2, [r3, #0]
    if(__HAL_FLASH_GET_LATENCY() != FLatency)
 8001472:	681b      	ldr	r3, [r3, #0]
 8001474:	f003 030f 	and.w	r3, r3, #15
 8001478:	429d      	cmp	r5, r3
 800147a:	f47f af36 	bne.w	80012ea <HAL_RCC_ClockConfig+0xa>
 800147e:	e75a      	b.n	8001336 <HAL_RCC_ClockConfig+0x56>
    assert_param(IS_RCC_PCLK(RCC_ClkInitStruct->APB1CLKDivider));
 8001480:	68e3      	ldr	r3, [r4, #12]
 8001482:	f433 5280 	bics.w	r2, r3, #4096	; 0x1000
 8001486:	d00c      	beq.n	80014a2 <HAL_RCC_ClockConfig+0x1c2>
 8001488:	f423 6200 	bic.w	r2, r3, #2048	; 0x800
 800148c:	f5b2 5fa0 	cmp.w	r2, #5120	; 0x1400
 8001490:	d007      	beq.n	80014a2 <HAL_RCC_ClockConfig+0x1c2>
 8001492:	f5b3 5fc0 	cmp.w	r3, #6144	; 0x1800
 8001496:	d004      	beq.n	80014a2 <HAL_RCC_ClockConfig+0x1c2>
 8001498:	f240 21b9 	movw	r1, #697	; 0x2b9
 800149c:	4805      	ldr	r0, [pc, #20]	; (80014b4 <HAL_RCC_ClockConfig+0x1d4>)
 800149e:	f001 f82b 	bl	80024f8 <assert_failed>
    MODIFY_REG(RCC->CFGR, RCC_CFGR_PPRE1, RCC_ClkInitStruct->APB1CLKDivider);
 80014a2:	4a06      	ldr	r2, [pc, #24]	; (80014bc <HAL_RCC_ClockConfig+0x1dc>)
 80014a4:	68e1      	ldr	r1, [r4, #12]
 80014a6:	6893      	ldr	r3, [r2, #8]
 80014a8:	f423 53e0 	bic.w	r3, r3, #7168	; 0x1c00
 80014ac:	430b      	orrs	r3, r1
 80014ae:	6093      	str	r3, [r2, #8]
 80014b0:	e745      	b.n	800133e <HAL_RCC_ClockConfig+0x5e>
 80014b2:	bf00      	nop
 80014b4:	08003132 	.word	0x08003132
 80014b8:	40023c00 	.word	0x40023c00
 80014bc:	40023800 	.word	0x40023800
 80014c0:	0800322f 	.word	0x0800322f
 80014c4:	20000008 	.word	0x20000008

080014c8 <HAL_RCC_GetHCLKFreq>:
  * @retval HCLK frequency
  */
uint32_t HAL_RCC_GetHCLKFreq(void)
{
  return SystemCoreClock;
}
 80014c8:	4b01      	ldr	r3, [pc, #4]	; (80014d0 <HAL_RCC_GetHCLKFreq+0x8>)
 80014ca:	6818      	ldr	r0, [r3, #0]
 80014cc:	4770      	bx	lr
 80014ce:	bf00      	nop
 80014d0:	20000008 	.word	0x20000008

080014d4 <HAL_RCC_GetPCLK1Freq>:
  * @retval PCLK1 frequency
  */
uint32_t HAL_RCC_GetPCLK1Freq(void)
{
  /* Get HCLK source and Compute PCLK1 frequency ---------------------------*/
  return (HAL_RCC_GetHCLKFreq() >> APBPrescTable[(RCC->CFGR & RCC_CFGR_PPRE1)>> RCC_CFGR_PPRE1_Pos]);
 80014d4:	4b04      	ldr	r3, [pc, #16]	; (80014e8 <HAL_RCC_GetPCLK1Freq+0x14>)
 80014d6:	4a05      	ldr	r2, [pc, #20]	; (80014ec <HAL_RCC_GetPCLK1Freq+0x18>)
 80014d8:	689b      	ldr	r3, [r3, #8]
 80014da:	f3c3 2382 	ubfx	r3, r3, #10, #3
 80014de:	5cd3      	ldrb	r3, [r2, r3]
 80014e0:	4a03      	ldr	r2, [pc, #12]	; (80014f0 <HAL_RCC_GetPCLK1Freq+0x1c>)
 80014e2:	6810      	ldr	r0, [r2, #0]
}
 80014e4:	40d8      	lsrs	r0, r3
 80014e6:	4770      	bx	lr
 80014e8:	40023800 	.word	0x40023800
 80014ec:	0800323f 	.word	0x0800323f
 80014f0:	20000008 	.word	0x20000008

080014f4 <HAL_RCC_GetPCLK2Freq>:
  * @retval PCLK2 frequency
  */
uint32_t HAL_RCC_GetPCLK2Freq(void)
{
  /* Get HCLK source and Compute PCLK2 frequency ---------------------------*/
  return (HAL_RCC_GetHCLKFreq()>> APBPrescTable[(RCC->CFGR & RCC_CFGR_PPRE2)>> RCC_CFGR_PPRE2_Pos]);
 80014f4:	4b04      	ldr	r3, [pc, #16]	; (8001508 <HAL_RCC_GetPCLK2Freq+0x14>)
 80014f6:	4a05      	ldr	r2, [pc, #20]	; (800150c <HAL_RCC_GetPCLK2Freq+0x18>)
 80014f8:	689b      	ldr	r3, [r3, #8]
 80014fa:	f3c3 3342 	ubfx	r3, r3, #13, #3
 80014fe:	5cd3      	ldrb	r3, [r2, r3]
 8001500:	4a03      	ldr	r2, [pc, #12]	; (8001510 <HAL_RCC_GetPCLK2Freq+0x1c>)
 8001502:	6810      	ldr	r0, [r2, #0]
}
 8001504:	40d8      	lsrs	r0, r3
 8001506:	4770      	bx	lr
 8001508:	40023800 	.word	0x40023800
 800150c:	0800323f 	.word	0x0800323f
 8001510:	20000008 	.word	0x20000008

08001514 <HAL_RCC_GetSysClockFreq>:
  uint32_t pllp = 0U;
  uint32_t pllr = 0U;
  uint32_t sysclockfreq = 0U;

  /* Get SYSCLK source -------------------------------------------------------*/
  switch (RCC->CFGR & RCC_CFGR_SWS)
 8001514:	4920      	ldr	r1, [pc, #128]	; (8001598 <HAL_RCC_GetSysClockFreq+0x84>)
{
 8001516:	b508      	push	{r3, lr}
  switch (RCC->CFGR & RCC_CFGR_SWS)
 8001518:	688b      	ldr	r3, [r1, #8]
 800151a:	f003 030c 	and.w	r3, r3, #12
 800151e:	2b08      	cmp	r3, #8
 8001520:	d007      	beq.n	8001532 <HAL_RCC_GetSysClockFreq+0x1e>
 8001522:	2b0c      	cmp	r3, #12
 8001524:	d020      	beq.n	8001568 <HAL_RCC_GetSysClockFreq+0x54>
  {
    case RCC_CFGR_SWS_HSI:  /* HSI used as system clock source */
    {
      sysclockfreq = HSI_VALUE;
 8001526:	4a1d      	ldr	r2, [pc, #116]	; (800159c <HAL_RCC_GetSysClockFreq+0x88>)
 8001528:	481d      	ldr	r0, [pc, #116]	; (80015a0 <HAL_RCC_GetSysClockFreq+0x8c>)
 800152a:	2b04      	cmp	r3, #4
 800152c:	bf18      	it	ne
 800152e:	4610      	movne	r0, r2
 8001530:	bd08      	pop	{r3, pc}
    }
    case RCC_CFGR_SWS_PLL:  /* PLL/PLLP used as system clock  source */
    {
      /* PLL_VCO = (HSE_VALUE or HSI_VALUE / PLLM) * PLLN
      SYSCLK = PLL_VCO / PLLP */
      pllm = RCC->PLLCFGR & RCC_PLLCFGR_PLLM;
 8001532:	684a      	ldr	r2, [r1, #4]
      if(__HAL_RCC_GET_PLL_OSCSOURCE() != RCC_PLLSOURCE_HSI)
 8001534:	684b      	ldr	r3, [r1, #4]
      {
        /* HSE used as PLL clock source */
        pllvco = (uint32_t) ((((uint64_t) HSE_VALUE * ((uint64_t) ((RCC->PLLCFGR & RCC_PLLCFGR_PLLN) >> RCC_PLLCFGR_PLLN_Pos)))) / (uint64_t)pllm);
 8001536:	6849      	ldr	r1, [r1, #4]
      if(__HAL_RCC_GET_PLL_OSCSOURCE() != RCC_PLLSOURCE_HSI)
 8001538:	f413 0380 	ands.w	r3, r3, #4194304	; 0x400000
        pllvco = (uint32_t) ((((uint64_t) HSE_VALUE * ((uint64_t) ((RCC->PLLCFGR & RCC_PLLCFGR_PLLN) >> RCC_PLLCFGR_PLLN_Pos)))) / (uint64_t)pllm);
 800153c:	bf14      	ite	ne
 800153e:	4818      	ldrne	r0, [pc, #96]	; (80015a0 <HAL_RCC_GetSysClockFreq+0x8c>)
      }
      else
      {
        /* HSI used as PLL clock source */
        pllvco = (uint32_t) ((((uint64_t) HSI_VALUE * ((uint64_t) ((RCC->PLLCFGR & RCC_PLLCFGR_PLLN) >> RCC_PLLCFGR_PLLN_Pos)))) / (uint64_t)pllm);
 8001540:	4816      	ldreq	r0, [pc, #88]	; (800159c <HAL_RCC_GetSysClockFreq+0x88>)
        pllvco = (uint32_t) ((((uint64_t) HSE_VALUE * ((uint64_t) ((RCC->PLLCFGR & RCC_PLLCFGR_PLLN) >> RCC_PLLCFGR_PLLN_Pos)))) / (uint64_t)pllm);
 8001542:	f3c1 1188 	ubfx	r1, r1, #6, #9
 8001546:	bf18      	it	ne
 8001548:	2300      	movne	r3, #0
      pllm = RCC->PLLCFGR & RCC_PLLCFGR_PLLM;
 800154a:	f002 023f 	and.w	r2, r2, #63	; 0x3f
        pllvco = (uint32_t) ((((uint64_t) HSI_VALUE * ((uint64_t) ((RCC->PLLCFGR & RCC_PLLCFGR_PLLN) >> RCC_PLLCFGR_PLLN_Pos)))) / (uint64_t)pllm);
 800154e:	fba1 0100 	umull	r0, r1, r1, r0
 8001552:	f7fe fead 	bl	80002b0 <__aeabi_uldivmod>
      }
      pllp = ((((RCC->PLLCFGR & RCC_PLLCFGR_PLLP) >> RCC_PLLCFGR_PLLP_Pos) + 1U) *2U);
 8001556:	4b10      	ldr	r3, [pc, #64]	; (8001598 <HAL_RCC_GetSysClockFreq+0x84>)
 8001558:	685b      	ldr	r3, [r3, #4]
 800155a:	f3c3 4301 	ubfx	r3, r3, #16, #2
 800155e:	3301      	adds	r3, #1
 8001560:	005b      	lsls	r3, r3, #1
        /* HSI used as PLL clock source */
        pllvco = (uint32_t) ((((uint64_t) HSI_VALUE * ((uint64_t) ((RCC->PLLCFGR & RCC_PLLCFGR_PLLN) >> RCC_PLLCFGR_PLLN_Pos)))) / (uint64_t)pllm);
      }
      pllr = ((RCC->PLLCFGR & RCC_PLLCFGR_PLLR) >> RCC_PLLCFGR_PLLR_Pos);

      sysclockfreq = pllvco/pllr;
 8001562:	fbb0 f0f3 	udiv	r0, r0, r3
      sysclockfreq = HSI_VALUE;
      break;
    }
  }
  return sysclockfreq;
}
 8001566:	bd08      	pop	{r3, pc}
      pllm = RCC->PLLCFGR & RCC_PLLCFGR_PLLM;
 8001568:	684a      	ldr	r2, [r1, #4]
      if(__HAL_RCC_GET_PLL_OSCSOURCE() != RCC_PLLSOURCE_HSI)
 800156a:	684b      	ldr	r3, [r1, #4]
        pllvco = (uint32_t) ((((uint64_t) HSE_VALUE * ((uint64_t) ((RCC->PLLCFGR & RCC_PLLCFGR_PLLN) >> RCC_PLLCFGR_PLLN_Pos)))) / (uint64_t)pllm);
 800156c:	6849      	ldr	r1, [r1, #4]
      if(__HAL_RCC_GET_PLL_OSCSOURCE() != RCC_PLLSOURCE_HSI)
 800156e:	f413 0380 	ands.w	r3, r3, #4194304	; 0x400000
        pllvco = (uint32_t) ((((uint64_t) HSE_VALUE * ((uint64_t) ((RCC->PLLCFGR & RCC_PLLCFGR_PLLN) >> RCC_PLLCFGR_PLLN_Pos)))) / (uint64_t)pllm);
 8001572:	bf14      	ite	ne
 8001574:	480a      	ldrne	r0, [pc, #40]	; (80015a0 <HAL_RCC_GetSysClockFreq+0x8c>)
        pllvco = (uint32_t) ((((uint64_t) HSI_VALUE * ((uint64_t) ((RCC->PLLCFGR & RCC_PLLCFGR_PLLN) >> RCC_PLLCFGR_PLLN_Pos)))) / (uint64_t)pllm);
 8001576:	4809      	ldreq	r0, [pc, #36]	; (800159c <HAL_RCC_GetSysClockFreq+0x88>)
        pllvco = (uint32_t) ((((uint64_t) HSE_VALUE * ((uint64_t) ((RCC->PLLCFGR & RCC_PLLCFGR_PLLN) >> RCC_PLLCFGR_PLLN_Pos)))) / (uint64_t)pllm);
 8001578:	f3c1 1188 	ubfx	r1, r1, #6, #9
 800157c:	bf18      	it	ne
 800157e:	2300      	movne	r3, #0
      pllm = RCC->PLLCFGR & RCC_PLLCFGR_PLLM;
 8001580:	f002 023f 	and.w	r2, r2, #63	; 0x3f
        pllvco = (uint32_t) ((((uint64_t) HSI_VALUE * ((uint64_t) ((RCC->PLLCFGR & RCC_PLLCFGR_PLLN) >> RCC_PLLCFGR_PLLN_Pos)))) / (uint64_t)pllm);
 8001584:	fba1 0100 	umull	r0, r1, r1, r0
 8001588:	f7fe fe92 	bl	80002b0 <__aeabi_uldivmod>
      pllr = ((RCC->PLLCFGR & RCC_PLLCFGR_PLLR) >> RCC_PLLCFGR_PLLR_Pos);
 800158c:	4b02      	ldr	r3, [pc, #8]	; (8001598 <HAL_RCC_GetSysClockFreq+0x84>)
 800158e:	685b      	ldr	r3, [r3, #4]
 8001590:	f3c3 7302 	ubfx	r3, r3, #28, #3
 8001594:	e7e5      	b.n	8001562 <HAL_RCC_GetSysClockFreq+0x4e>
 8001596:	bf00      	nop
 8001598:	40023800 	.word	0x40023800
 800159c:	00f42400 	.word	0x00f42400
 80015a0:	007a1200 	.word	0x007a1200

080015a4 <HAL_RCC_OscConfig>:
HAL_StatusTypeDef HAL_RCC_OscConfig(RCC_OscInitTypeDef  *RCC_OscInitStruct)
{
  uint32_t tickstart = 0U;

  /* Check the parameters */
  assert_param(IS_RCC_OSCILLATORTYPE(RCC_OscInitStruct->OscillatorType));
 80015a4:	6803      	ldr	r3, [r0, #0]
 80015a6:	2b0f      	cmp	r3, #15
{
 80015a8:	e92d 41f3 	stmdb	sp!, {r0, r1, r4, r5, r6, r7, r8, lr}
 80015ac:	4604      	mov	r4, r0
  assert_param(IS_RCC_OSCILLATORTYPE(RCC_OscInitStruct->OscillatorType));
 80015ae:	d904      	bls.n	80015ba <HAL_RCC_OscConfig+0x16>
 80015b0:	f44f 6151 	mov.w	r1, #3344	; 0xd10
 80015b4:	48a3      	ldr	r0, [pc, #652]	; (8001844 <HAL_RCC_OscConfig+0x2a0>)
 80015b6:	f000 ff9f 	bl	80024f8 <assert_failed>
  /*------------------------------- HSE Configuration ------------------------*/
  if(((RCC_OscInitStruct->OscillatorType) & RCC_OSCILLATORTYPE_HSE) == RCC_OSCILLATORTYPE_HSE)
 80015ba:	6823      	ldr	r3, [r4, #0]
 80015bc:	07de      	lsls	r6, r3, #31
 80015be:	d418      	bmi.n	80015f2 <HAL_RCC_OscConfig+0x4e>
        }
      }
    }
  }
  /*----------------------------- HSI Configuration --------------------------*/
  if(((RCC_OscInitStruct->OscillatorType) & RCC_OSCILLATORTYPE_HSI) == RCC_OSCILLATORTYPE_HSI)
 80015c0:	6823      	ldr	r3, [r4, #0]
 80015c2:	079d      	lsls	r5, r3, #30
 80015c4:	d47b      	bmi.n	80016be <HAL_RCC_OscConfig+0x11a>
        }
      }
    }
  }
  /*------------------------------ LSI Configuration -------------------------*/
  if(((RCC_OscInitStruct->OscillatorType) & RCC_OSCILLATORTYPE_LSI) == RCC_OSCILLATORTYPE_LSI)
 80015c6:	6823      	ldr	r3, [r4, #0]
 80015c8:	0719      	lsls	r1, r3, #28
 80015ca:	f100 80d6 	bmi.w	800177a <HAL_RCC_OscConfig+0x1d6>
        }
      }
    }
  }
  /*------------------------------ LSE Configuration -------------------------*/
  if(((RCC_OscInitStruct->OscillatorType) & RCC_OSCILLATORTYPE_LSE) == RCC_OSCILLATORTYPE_LSE)
 80015ce:	6823      	ldr	r3, [r4, #0]
 80015d0:	075a      	lsls	r2, r3, #29
 80015d2:	f100 80fc 	bmi.w	80017ce <HAL_RCC_OscConfig+0x22a>
      __HAL_RCC_PWR_CLK_DISABLE();
    }
  }
  /*-------------------------------- PLL Configuration -----------------------*/
  /* Check the parameters */
  assert_param(IS_RCC_PLL(RCC_OscInitStruct->PLL.PLLState));
 80015d6:	69a3      	ldr	r3, [r4, #24]
 80015d8:	2b02      	cmp	r3, #2
 80015da:	d904      	bls.n	80015e6 <HAL_RCC_OscConfig+0x42>
 80015dc:	f640 6103 	movw	r1, #3587	; 0xe03
 80015e0:	4898      	ldr	r0, [pc, #608]	; (8001844 <HAL_RCC_OscConfig+0x2a0>)
 80015e2:	f000 ff89 	bl	80024f8 <assert_failed>
  if ((RCC_OscInitStruct->PLL.PLLState) != RCC_PLL_NONE)
 80015e6:	69a2      	ldr	r2, [r4, #24]
 80015e8:	2a00      	cmp	r2, #0
 80015ea:	f040 816a 	bne.w	80018c2 <HAL_RCC_OscConfig+0x31e>
    else
    {
      return HAL_ERROR;
    }
  }
  return HAL_OK;
 80015ee:	2000      	movs	r0, #0
 80015f0:	e02a      	b.n	8001648 <HAL_RCC_OscConfig+0xa4>
    assert_param(IS_RCC_HSE(RCC_OscInitStruct->HSEState));
 80015f2:	6863      	ldr	r3, [r4, #4]
 80015f4:	f433 3280 	bics.w	r2, r3, #65536	; 0x10000
 80015f8:	d007      	beq.n	800160a <HAL_RCC_OscConfig+0x66>
 80015fa:	f5b3 2fa0 	cmp.w	r3, #327680	; 0x50000
 80015fe:	d004      	beq.n	800160a <HAL_RCC_OscConfig+0x66>
 8001600:	f640 5115 	movw	r1, #3349	; 0xd15
 8001604:	488f      	ldr	r0, [pc, #572]	; (8001844 <HAL_RCC_OscConfig+0x2a0>)
 8001606:	f000 ff77 	bl	80024f8 <assert_failed>
    if((__HAL_RCC_GET_SYSCLK_SOURCE() == RCC_CFGR_SWS_HSE)                                                                     ||\
 800160a:	4b8f      	ldr	r3, [pc, #572]	; (8001848 <HAL_RCC_OscConfig+0x2a4>)
 800160c:	689a      	ldr	r2, [r3, #8]
 800160e:	f002 020c 	and.w	r2, r2, #12
 8001612:	2a04      	cmp	r2, #4
 8001614:	d010      	beq.n	8001638 <HAL_RCC_OscConfig+0x94>
      ((__HAL_RCC_GET_SYSCLK_SOURCE() == RCC_CFGR_SWS_PLL) && ((RCC->PLLCFGR & RCC_PLLCFGR_PLLSRC) == RCC_PLLCFGR_PLLSRC_HSE)) ||\
 8001616:	689a      	ldr	r2, [r3, #8]
 8001618:	f002 020c 	and.w	r2, r2, #12
    if((__HAL_RCC_GET_SYSCLK_SOURCE() == RCC_CFGR_SWS_HSE)                                                                     ||\
 800161c:	2a08      	cmp	r2, #8
 800161e:	d102      	bne.n	8001626 <HAL_RCC_OscConfig+0x82>
      ((__HAL_RCC_GET_SYSCLK_SOURCE() == RCC_CFGR_SWS_PLL) && ((RCC->PLLCFGR & RCC_PLLCFGR_PLLSRC) == RCC_PLLCFGR_PLLSRC_HSE)) ||\
 8001620:	685b      	ldr	r3, [r3, #4]
 8001622:	0258      	lsls	r0, r3, #9
 8001624:	d408      	bmi.n	8001638 <HAL_RCC_OscConfig+0x94>
      ((__HAL_RCC_GET_SYSCLK_SOURCE() == RCC_CFGR_SWS_PLLR) && ((RCC->PLLCFGR & RCC_PLLCFGR_PLLSRC) == RCC_PLLCFGR_PLLSRC_HSE)))
 8001626:	4b88      	ldr	r3, [pc, #544]	; (8001848 <HAL_RCC_OscConfig+0x2a4>)
 8001628:	689a      	ldr	r2, [r3, #8]
 800162a:	f002 020c 	and.w	r2, r2, #12
      ((__HAL_RCC_GET_SYSCLK_SOURCE() == RCC_CFGR_SWS_PLL) && ((RCC->PLLCFGR & RCC_PLLCFGR_PLLSRC) == RCC_PLLCFGR_PLLSRC_HSE)) ||\
 800162e:	2a0c      	cmp	r2, #12
 8001630:	d10d      	bne.n	800164e <HAL_RCC_OscConfig+0xaa>
      ((__HAL_RCC_GET_SYSCLK_SOURCE() == RCC_CFGR_SWS_PLLR) && ((RCC->PLLCFGR & RCC_PLLCFGR_PLLSRC) == RCC_PLLCFGR_PLLSRC_HSE)))
 8001632:	685a      	ldr	r2, [r3, #4]
 8001634:	0251      	lsls	r1, r2, #9
 8001636:	d50a      	bpl.n	800164e <HAL_RCC_OscConfig+0xaa>
      if((__HAL_RCC_GET_FLAG(RCC_FLAG_HSERDY) != RESET) && (RCC_OscInitStruct->HSEState == RCC_HSE_OFF))
 8001638:	4b83      	ldr	r3, [pc, #524]	; (8001848 <HAL_RCC_OscConfig+0x2a4>)
 800163a:	681b      	ldr	r3, [r3, #0]
 800163c:	039a      	lsls	r2, r3, #14
 800163e:	d5bf      	bpl.n	80015c0 <HAL_RCC_OscConfig+0x1c>
 8001640:	6863      	ldr	r3, [r4, #4]
 8001642:	2b00      	cmp	r3, #0
 8001644:	d1bc      	bne.n	80015c0 <HAL_RCC_OscConfig+0x1c>
        return HAL_ERROR;
 8001646:	2001      	movs	r0, #1
}
 8001648:	b002      	add	sp, #8
 800164a:	e8bd 81f0 	ldmia.w	sp!, {r4, r5, r6, r7, r8, pc}
      __HAL_RCC_HSE_CONFIG(RCC_OscInitStruct->HSEState);
 800164e:	6862      	ldr	r2, [r4, #4]
 8001650:	f5b2 3f80 	cmp.w	r2, #65536	; 0x10000
 8001654:	d111      	bne.n	800167a <HAL_RCC_OscConfig+0xd6>
 8001656:	681a      	ldr	r2, [r3, #0]
 8001658:	f442 3280 	orr.w	r2, r2, #65536	; 0x10000
 800165c:	601a      	str	r2, [r3, #0]
        tickstart = HAL_GetTick();
 800165e:	f7fe fff9 	bl	8000654 <HAL_GetTick>
        while(__HAL_RCC_GET_FLAG(RCC_FLAG_HSERDY) == RESET)
 8001662:	4d79      	ldr	r5, [pc, #484]	; (8001848 <HAL_RCC_OscConfig+0x2a4>)
        tickstart = HAL_GetTick();
 8001664:	4606      	mov	r6, r0
        while(__HAL_RCC_GET_FLAG(RCC_FLAG_HSERDY) == RESET)
 8001666:	682b      	ldr	r3, [r5, #0]
 8001668:	039b      	lsls	r3, r3, #14
 800166a:	d4a9      	bmi.n	80015c0 <HAL_RCC_OscConfig+0x1c>
          if((HAL_GetTick() - tickstart ) > HSE_TIMEOUT_VALUE)
 800166c:	f7fe fff2 	bl	8000654 <HAL_GetTick>
 8001670:	1b80      	subs	r0, r0, r6
 8001672:	2864      	cmp	r0, #100	; 0x64
 8001674:	d9f7      	bls.n	8001666 <HAL_RCC_OscConfig+0xc2>
            return HAL_TIMEOUT;
 8001676:	2003      	movs	r0, #3
 8001678:	e7e6      	b.n	8001648 <HAL_RCC_OscConfig+0xa4>
 800167a:	4d73      	ldr	r5, [pc, #460]	; (8001848 <HAL_RCC_OscConfig+0x2a4>)
      __HAL_RCC_HSE_CONFIG(RCC_OscInitStruct->HSEState);
 800167c:	f5b2 2fa0 	cmp.w	r2, #327680	; 0x50000
 8001680:	682b      	ldr	r3, [r5, #0]
 8001682:	d107      	bne.n	8001694 <HAL_RCC_OscConfig+0xf0>
 8001684:	f443 2380 	orr.w	r3, r3, #262144	; 0x40000
 8001688:	602b      	str	r3, [r5, #0]
 800168a:	682b      	ldr	r3, [r5, #0]
 800168c:	f443 3380 	orr.w	r3, r3, #65536	; 0x10000
 8001690:	602b      	str	r3, [r5, #0]
 8001692:	e7e4      	b.n	800165e <HAL_RCC_OscConfig+0xba>
 8001694:	f423 3380 	bic.w	r3, r3, #65536	; 0x10000
 8001698:	602b      	str	r3, [r5, #0]
 800169a:	682b      	ldr	r3, [r5, #0]
 800169c:	f423 2380 	bic.w	r3, r3, #262144	; 0x40000
 80016a0:	602b      	str	r3, [r5, #0]
      if((RCC_OscInitStruct->HSEState) != RCC_HSE_OFF)
 80016a2:	2a00      	cmp	r2, #0
 80016a4:	d1db      	bne.n	800165e <HAL_RCC_OscConfig+0xba>
        tickstart = HAL_GetTick();
 80016a6:	f7fe ffd5 	bl	8000654 <HAL_GetTick>
 80016aa:	4606      	mov	r6, r0
        while(__HAL_RCC_GET_FLAG(RCC_FLAG_HSERDY) != RESET)
 80016ac:	682b      	ldr	r3, [r5, #0]
 80016ae:	039f      	lsls	r7, r3, #14
 80016b0:	d586      	bpl.n	80015c0 <HAL_RCC_OscConfig+0x1c>
          if((HAL_GetTick() - tickstart ) > HSE_TIMEOUT_VALUE)
 80016b2:	f7fe ffcf 	bl	8000654 <HAL_GetTick>
 80016b6:	1b80      	subs	r0, r0, r6
 80016b8:	2864      	cmp	r0, #100	; 0x64
 80016ba:	d9f7      	bls.n	80016ac <HAL_RCC_OscConfig+0x108>
 80016bc:	e7db      	b.n	8001676 <HAL_RCC_OscConfig+0xd2>
    assert_param(IS_RCC_HSI(RCC_OscInitStruct->HSIState));
 80016be:	68e3      	ldr	r3, [r4, #12]
 80016c0:	2b01      	cmp	r3, #1
 80016c2:	d904      	bls.n	80016ce <HAL_RCC_OscConfig+0x12a>
 80016c4:	f640 514d 	movw	r1, #3405	; 0xd4d
 80016c8:	485e      	ldr	r0, [pc, #376]	; (8001844 <HAL_RCC_OscConfig+0x2a0>)
 80016ca:	f000 ff15 	bl	80024f8 <assert_failed>
    assert_param(IS_RCC_CALIBRATION_VALUE(RCC_OscInitStruct->HSICalibrationValue));
 80016ce:	6923      	ldr	r3, [r4, #16]
 80016d0:	2b1f      	cmp	r3, #31
 80016d2:	d904      	bls.n	80016de <HAL_RCC_OscConfig+0x13a>
 80016d4:	f640 514e 	movw	r1, #3406	; 0xd4e
 80016d8:	485a      	ldr	r0, [pc, #360]	; (8001844 <HAL_RCC_OscConfig+0x2a0>)
 80016da:	f000 ff0d 	bl	80024f8 <assert_failed>
    if((__HAL_RCC_GET_SYSCLK_SOURCE() == RCC_CFGR_SWS_HSI)                                                                     ||\
 80016de:	4b5a      	ldr	r3, [pc, #360]	; (8001848 <HAL_RCC_OscConfig+0x2a4>)
 80016e0:	689a      	ldr	r2, [r3, #8]
 80016e2:	f012 0f0c 	tst.w	r2, #12
 80016e6:	d010      	beq.n	800170a <HAL_RCC_OscConfig+0x166>
      ((__HAL_RCC_GET_SYSCLK_SOURCE() == RCC_CFGR_SWS_PLL) && ((RCC->PLLCFGR & RCC_PLLCFGR_PLLSRC) == RCC_PLLCFGR_PLLSRC_HSI)) ||\
 80016e8:	689a      	ldr	r2, [r3, #8]
 80016ea:	f002 020c 	and.w	r2, r2, #12
    if((__HAL_RCC_GET_SYSCLK_SOURCE() == RCC_CFGR_SWS_HSI)                                                                     ||\
 80016ee:	2a08      	cmp	r2, #8
 80016f0:	d102      	bne.n	80016f8 <HAL_RCC_OscConfig+0x154>
      ((__HAL_RCC_GET_SYSCLK_SOURCE() == RCC_CFGR_SWS_PLL) && ((RCC->PLLCFGR & RCC_PLLCFGR_PLLSRC) == RCC_PLLCFGR_PLLSRC_HSI)) ||\
 80016f2:	685b      	ldr	r3, [r3, #4]
 80016f4:	0258      	lsls	r0, r3, #9
 80016f6:	d508      	bpl.n	800170a <HAL_RCC_OscConfig+0x166>
      ((__HAL_RCC_GET_SYSCLK_SOURCE() == RCC_CFGR_SWS_PLLR) && ((RCC->PLLCFGR & RCC_PLLCFGR_PLLSRC) == RCC_PLLCFGR_PLLSRC_HSI)))
 80016f8:	4a53      	ldr	r2, [pc, #332]	; (8001848 <HAL_RCC_OscConfig+0x2a4>)
 80016fa:	6893      	ldr	r3, [r2, #8]
 80016fc:	f003 030c 	and.w	r3, r3, #12
      ((__HAL_RCC_GET_SYSCLK_SOURCE() == RCC_CFGR_SWS_PLL) && ((RCC->PLLCFGR & RCC_PLLCFGR_PLLSRC) == RCC_PLLCFGR_PLLSRC_HSI)) ||\
 8001700:	2b0c      	cmp	r3, #12
 8001702:	d111      	bne.n	8001728 <HAL_RCC_OscConfig+0x184>
      ((__HAL_RCC_GET_SYSCLK_SOURCE() == RCC_CFGR_SWS_PLLR) && ((RCC->PLLCFGR & RCC_PLLCFGR_PLLSRC) == RCC_PLLCFGR_PLLSRC_HSI)))
 8001704:	6853      	ldr	r3, [r2, #4]
 8001706:	0259      	lsls	r1, r3, #9
 8001708:	d40e      	bmi.n	8001728 <HAL_RCC_OscConfig+0x184>
      if((__HAL_RCC_GET_FLAG(RCC_FLAG_HSIRDY) != RESET) && (RCC_OscInitStruct->HSIState != RCC_HSI_ON))
 800170a:	4b4f      	ldr	r3, [pc, #316]	; (8001848 <HAL_RCC_OscConfig+0x2a4>)
 800170c:	681a      	ldr	r2, [r3, #0]
 800170e:	0792      	lsls	r2, r2, #30
 8001710:	d502      	bpl.n	8001718 <HAL_RCC_OscConfig+0x174>
 8001712:	68e2      	ldr	r2, [r4, #12]
 8001714:	2a01      	cmp	r2, #1
 8001716:	d196      	bne.n	8001646 <HAL_RCC_OscConfig+0xa2>
        __HAL_RCC_HSI_CALIBRATIONVALUE_ADJUST(RCC_OscInitStruct->HSICalibrationValue);
 8001718:	681a      	ldr	r2, [r3, #0]
 800171a:	6921      	ldr	r1, [r4, #16]
 800171c:	f022 02f8 	bic.w	r2, r2, #248	; 0xf8
 8001720:	ea42 02c1 	orr.w	r2, r2, r1, lsl #3
 8001724:	601a      	str	r2, [r3, #0]
      if((__HAL_RCC_GET_FLAG(RCC_FLAG_HSIRDY) != RESET) && (RCC_OscInitStruct->HSIState != RCC_HSI_ON))
 8001726:	e74e      	b.n	80015c6 <HAL_RCC_OscConfig+0x22>
      if((RCC_OscInitStruct->HSIState)!= RCC_HSI_OFF)
 8001728:	68e2      	ldr	r2, [r4, #12]
 800172a:	4b48      	ldr	r3, [pc, #288]	; (800184c <HAL_RCC_OscConfig+0x2a8>)
 800172c:	b1b2      	cbz	r2, 800175c <HAL_RCC_OscConfig+0x1b8>
        __HAL_RCC_HSI_ENABLE();
 800172e:	2201      	movs	r2, #1
 8001730:	601a      	str	r2, [r3, #0]
        tickstart = HAL_GetTick();
 8001732:	f7fe ff8f 	bl	8000654 <HAL_GetTick>
        while(__HAL_RCC_GET_FLAG(RCC_FLAG_HSIRDY) == RESET)
 8001736:	4d44      	ldr	r5, [pc, #272]	; (8001848 <HAL_RCC_OscConfig+0x2a4>)
        tickstart = HAL_GetTick();
 8001738:	4606      	mov	r6, r0
        while(__HAL_RCC_GET_FLAG(RCC_FLAG_HSIRDY) == RESET)
 800173a:	682b      	ldr	r3, [r5, #0]
 800173c:	079f      	lsls	r7, r3, #30
 800173e:	d507      	bpl.n	8001750 <HAL_RCC_OscConfig+0x1ac>
        __HAL_RCC_HSI_CALIBRATIONVALUE_ADJUST(RCC_OscInitStruct->HSICalibrationValue);
 8001740:	682b      	ldr	r3, [r5, #0]
 8001742:	6922      	ldr	r2, [r4, #16]
 8001744:	f023 03f8 	bic.w	r3, r3, #248	; 0xf8
 8001748:	ea43 03c2 	orr.w	r3, r3, r2, lsl #3
 800174c:	602b      	str	r3, [r5, #0]
 800174e:	e73a      	b.n	80015c6 <HAL_RCC_OscConfig+0x22>
          if((HAL_GetTick() - tickstart ) > HSI_TIMEOUT_VALUE)
 8001750:	f7fe ff80 	bl	8000654 <HAL_GetTick>
 8001754:	1b80      	subs	r0, r0, r6
 8001756:	2802      	cmp	r0, #2
 8001758:	d9ef      	bls.n	800173a <HAL_RCC_OscConfig+0x196>
 800175a:	e78c      	b.n	8001676 <HAL_RCC_OscConfig+0xd2>
        __HAL_RCC_HSI_DISABLE();
 800175c:	601a      	str	r2, [r3, #0]
        tickstart = HAL_GetTick();
 800175e:	f7fe ff79 	bl	8000654 <HAL_GetTick>
        while(__HAL_RCC_GET_FLAG(RCC_FLAG_HSIRDY) != RESET)
 8001762:	4d39      	ldr	r5, [pc, #228]	; (8001848 <HAL_RCC_OscConfig+0x2a4>)
        tickstart = HAL_GetTick();
 8001764:	4606      	mov	r6, r0
        while(__HAL_RCC_GET_FLAG(RCC_FLAG_HSIRDY) != RESET)
 8001766:	682b      	ldr	r3, [r5, #0]
 8001768:	0798      	lsls	r0, r3, #30
 800176a:	f57f af2c 	bpl.w	80015c6 <HAL_RCC_OscConfig+0x22>
          if((HAL_GetTick() - tickstart ) > HSI_TIMEOUT_VALUE)
 800176e:	f7fe ff71 	bl	8000654 <HAL_GetTick>
 8001772:	1b80      	subs	r0, r0, r6
 8001774:	2802      	cmp	r0, #2
 8001776:	d9f6      	bls.n	8001766 <HAL_RCC_OscConfig+0x1c2>
 8001778:	e77d      	b.n	8001676 <HAL_RCC_OscConfig+0xd2>
    assert_param(IS_RCC_LSI(RCC_OscInitStruct->LSIState));
 800177a:	6963      	ldr	r3, [r4, #20]
 800177c:	2b01      	cmp	r3, #1
 800177e:	d904      	bls.n	800178a <HAL_RCC_OscConfig+0x1e6>
 8001780:	f640 5194 	movw	r1, #3476	; 0xd94
 8001784:	482f      	ldr	r0, [pc, #188]	; (8001844 <HAL_RCC_OscConfig+0x2a0>)
 8001786:	f000 feb7 	bl	80024f8 <assert_failed>
    if((RCC_OscInitStruct->LSIState)!= RCC_LSI_OFF)
 800178a:	6962      	ldr	r2, [r4, #20]
 800178c:	4b30      	ldr	r3, [pc, #192]	; (8001850 <HAL_RCC_OscConfig+0x2ac>)
 800178e:	b17a      	cbz	r2, 80017b0 <HAL_RCC_OscConfig+0x20c>
      __HAL_RCC_LSI_ENABLE();
 8001790:	2201      	movs	r2, #1
 8001792:	601a      	str	r2, [r3, #0]
      tickstart = HAL_GetTick();
 8001794:	f7fe ff5e 	bl	8000654 <HAL_GetTick>
      while(__HAL_RCC_GET_FLAG(RCC_FLAG_LSIRDY) == RESET)
 8001798:	4d2b      	ldr	r5, [pc, #172]	; (8001848 <HAL_RCC_OscConfig+0x2a4>)
      tickstart = HAL_GetTick();
 800179a:	4606      	mov	r6, r0
      while(__HAL_RCC_GET_FLAG(RCC_FLAG_LSIRDY) == RESET)
 800179c:	6f6b      	ldr	r3, [r5, #116]	; 0x74
 800179e:	079b      	lsls	r3, r3, #30
 80017a0:	f53f af15 	bmi.w	80015ce <HAL_RCC_OscConfig+0x2a>
        if((HAL_GetTick() - tickstart ) > LSI_TIMEOUT_VALUE)
 80017a4:	f7fe ff56 	bl	8000654 <HAL_GetTick>
 80017a8:	1b80      	subs	r0, r0, r6
 80017aa:	2802      	cmp	r0, #2
 80017ac:	d9f6      	bls.n	800179c <HAL_RCC_OscConfig+0x1f8>
 80017ae:	e762      	b.n	8001676 <HAL_RCC_OscConfig+0xd2>
      __HAL_RCC_LSI_DISABLE();
 80017b0:	601a      	str	r2, [r3, #0]
      tickstart = HAL_GetTick();
 80017b2:	f7fe ff4f 	bl	8000654 <HAL_GetTick>
      while(__HAL_RCC_GET_FLAG(RCC_FLAG_LSIRDY) != RESET)
 80017b6:	4d24      	ldr	r5, [pc, #144]	; (8001848 <HAL_RCC_OscConfig+0x2a4>)
      tickstart = HAL_GetTick();
 80017b8:	4606      	mov	r6, r0
      while(__HAL_RCC_GET_FLAG(RCC_FLAG_LSIRDY) != RESET)
 80017ba:	6f6b      	ldr	r3, [r5, #116]	; 0x74
 80017bc:	079f      	lsls	r7, r3, #30
 80017be:	f57f af06 	bpl.w	80015ce <HAL_RCC_OscConfig+0x2a>
        if((HAL_GetTick() - tickstart ) > LSI_TIMEOUT_VALUE)
 80017c2:	f7fe ff47 	bl	8000654 <HAL_GetTick>
 80017c6:	1b80      	subs	r0, r0, r6
 80017c8:	2802      	cmp	r0, #2
 80017ca:	d9f6      	bls.n	80017ba <HAL_RCC_OscConfig+0x216>
 80017cc:	e753      	b.n	8001676 <HAL_RCC_OscConfig+0xd2>
    assert_param(IS_RCC_LSE(RCC_OscInitStruct->LSEState));
 80017ce:	68a3      	ldr	r3, [r4, #8]
 80017d0:	2b01      	cmp	r3, #1
 80017d2:	d906      	bls.n	80017e2 <HAL_RCC_OscConfig+0x23e>
 80017d4:	2b05      	cmp	r3, #5
 80017d6:	d004      	beq.n	80017e2 <HAL_RCC_OscConfig+0x23e>
 80017d8:	f44f 615c 	mov.w	r1, #3520	; 0xdc0
 80017dc:	4819      	ldr	r0, [pc, #100]	; (8001844 <HAL_RCC_OscConfig+0x2a0>)
 80017de:	f000 fe8b 	bl	80024f8 <assert_failed>
    if(__HAL_RCC_PWR_IS_CLK_DISABLED())
 80017e2:	4b19      	ldr	r3, [pc, #100]	; (8001848 <HAL_RCC_OscConfig+0x2a4>)
 80017e4:	6c1a      	ldr	r2, [r3, #64]	; 0x40
 80017e6:	f012 5280 	ands.w	r2, r2, #268435456	; 0x10000000
 80017ea:	d128      	bne.n	800183e <HAL_RCC_OscConfig+0x29a>
      __HAL_RCC_PWR_CLK_ENABLE();
 80017ec:	9201      	str	r2, [sp, #4]
 80017ee:	6c1a      	ldr	r2, [r3, #64]	; 0x40
 80017f0:	f042 5280 	orr.w	r2, r2, #268435456	; 0x10000000
 80017f4:	641a      	str	r2, [r3, #64]	; 0x40
 80017f6:	6c1b      	ldr	r3, [r3, #64]	; 0x40
 80017f8:	f003 5380 	and.w	r3, r3, #268435456	; 0x10000000
 80017fc:	9301      	str	r3, [sp, #4]
 80017fe:	9b01      	ldr	r3, [sp, #4]
      pwrclkchanged = SET;
 8001800:	2601      	movs	r6, #1
    if(HAL_IS_BIT_CLR(PWR->CR, PWR_CR_DBP))
 8001802:	4d14      	ldr	r5, [pc, #80]	; (8001854 <HAL_RCC_OscConfig+0x2b0>)
 8001804:	682b      	ldr	r3, [r5, #0]
 8001806:	05d8      	lsls	r0, r3, #23
 8001808:	d526      	bpl.n	8001858 <HAL_RCC_OscConfig+0x2b4>
    __HAL_RCC_LSE_CONFIG(RCC_OscInitStruct->LSEState);
 800180a:	68a3      	ldr	r3, [r4, #8]
 800180c:	4d0e      	ldr	r5, [pc, #56]	; (8001848 <HAL_RCC_OscConfig+0x2a4>)
 800180e:	2b01      	cmp	r3, #1
 8001810:	d132      	bne.n	8001878 <HAL_RCC_OscConfig+0x2d4>
 8001812:	6f2b      	ldr	r3, [r5, #112]	; 0x70
 8001814:	f043 0301 	orr.w	r3, r3, #1
 8001818:	672b      	str	r3, [r5, #112]	; 0x70
      tickstart = HAL_GetTick();
 800181a:	f7fe ff1b 	bl	8000654 <HAL_GetTick>
      while(__HAL_RCC_GET_FLAG(RCC_FLAG_LSERDY) == RESET)
 800181e:	4d0a      	ldr	r5, [pc, #40]	; (8001848 <HAL_RCC_OscConfig+0x2a4>)
      tickstart = HAL_GetTick();
 8001820:	4607      	mov	r7, r0
        if((HAL_GetTick() - tickstart ) > RCC_LSE_TIMEOUT_VALUE)
 8001822:	f241 3888 	movw	r8, #5000	; 0x1388
      while(__HAL_RCC_GET_FLAG(RCC_FLAG_LSERDY) == RESET)
 8001826:	6f2b      	ldr	r3, [r5, #112]	; 0x70
 8001828:	079a      	lsls	r2, r3, #30
 800182a:	d544      	bpl.n	80018b6 <HAL_RCC_OscConfig+0x312>
    if(pwrclkchanged == SET)
 800182c:	2e00      	cmp	r6, #0
 800182e:	f43f aed2 	beq.w	80015d6 <HAL_RCC_OscConfig+0x32>
      __HAL_RCC_PWR_CLK_DISABLE();
 8001832:	4a05      	ldr	r2, [pc, #20]	; (8001848 <HAL_RCC_OscConfig+0x2a4>)
 8001834:	6c13      	ldr	r3, [r2, #64]	; 0x40
 8001836:	f023 5380 	bic.w	r3, r3, #268435456	; 0x10000000
 800183a:	6413      	str	r3, [r2, #64]	; 0x40
 800183c:	e6cb      	b.n	80015d6 <HAL_RCC_OscConfig+0x32>
    FlagStatus       pwrclkchanged = RESET;
 800183e:	2600      	movs	r6, #0
 8001840:	e7df      	b.n	8001802 <HAL_RCC_OscConfig+0x25e>
 8001842:	bf00      	nop
 8001844:	0800316a 	.word	0x0800316a
 8001848:	40023800 	.word	0x40023800
 800184c:	42470000 	.word	0x42470000
 8001850:	42470e80 	.word	0x42470e80
 8001854:	40007000 	.word	0x40007000
      SET_BIT(PWR->CR, PWR_CR_DBP);
 8001858:	682b      	ldr	r3, [r5, #0]
 800185a:	f443 7380 	orr.w	r3, r3, #256	; 0x100
 800185e:	602b      	str	r3, [r5, #0]
      tickstart = HAL_GetTick();
 8001860:	f7fe fef8 	bl	8000654 <HAL_GetTick>
 8001864:	4607      	mov	r7, r0
      while(HAL_IS_BIT_CLR(PWR->CR, PWR_CR_DBP))
 8001866:	682b      	ldr	r3, [r5, #0]
 8001868:	05d9      	lsls	r1, r3, #23
 800186a:	d4ce      	bmi.n	800180a <HAL_RCC_OscConfig+0x266>
        if((HAL_GetTick() - tickstart) > RCC_DBP_TIMEOUT_VALUE)
 800186c:	f7fe fef2 	bl	8000654 <HAL_GetTick>
 8001870:	1bc0      	subs	r0, r0, r7
 8001872:	2802      	cmp	r0, #2
 8001874:	d9f7      	bls.n	8001866 <HAL_RCC_OscConfig+0x2c2>
 8001876:	e6fe      	b.n	8001676 <HAL_RCC_OscConfig+0xd2>
    __HAL_RCC_LSE_CONFIG(RCC_OscInitStruct->LSEState);
 8001878:	2b05      	cmp	r3, #5
 800187a:	d104      	bne.n	8001886 <HAL_RCC_OscConfig+0x2e2>
 800187c:	6f2b      	ldr	r3, [r5, #112]	; 0x70
 800187e:	f043 0304 	orr.w	r3, r3, #4
 8001882:	672b      	str	r3, [r5, #112]	; 0x70
 8001884:	e7c5      	b.n	8001812 <HAL_RCC_OscConfig+0x26e>
 8001886:	6f2a      	ldr	r2, [r5, #112]	; 0x70
 8001888:	f022 0201 	bic.w	r2, r2, #1
 800188c:	672a      	str	r2, [r5, #112]	; 0x70
 800188e:	6f2a      	ldr	r2, [r5, #112]	; 0x70
 8001890:	f022 0204 	bic.w	r2, r2, #4
 8001894:	672a      	str	r2, [r5, #112]	; 0x70
    if((RCC_OscInitStruct->LSEState) != RCC_LSE_OFF)
 8001896:	2b00      	cmp	r3, #0
 8001898:	d1bf      	bne.n	800181a <HAL_RCC_OscConfig+0x276>
      tickstart = HAL_GetTick();
 800189a:	f7fe fedb 	bl	8000654 <HAL_GetTick>
        if((HAL_GetTick() - tickstart ) > RCC_LSE_TIMEOUT_VALUE)
 800189e:	f241 3888 	movw	r8, #5000	; 0x1388
      tickstart = HAL_GetTick();
 80018a2:	4607      	mov	r7, r0
      while(__HAL_RCC_GET_FLAG(RCC_FLAG_LSERDY) != RESET)
 80018a4:	6f2b      	ldr	r3, [r5, #112]	; 0x70
 80018a6:	079b      	lsls	r3, r3, #30
 80018a8:	d5c0      	bpl.n	800182c <HAL_RCC_OscConfig+0x288>
        if((HAL_GetTick() - tickstart ) > RCC_LSE_TIMEOUT_VALUE)
 80018aa:	f7fe fed3 	bl	8000654 <HAL_GetTick>
 80018ae:	1bc0      	subs	r0, r0, r7
 80018b0:	4540      	cmp	r0, r8
 80018b2:	d9f7      	bls.n	80018a4 <HAL_RCC_OscConfig+0x300>
 80018b4:	e6df      	b.n	8001676 <HAL_RCC_OscConfig+0xd2>
        if((HAL_GetTick() - tickstart ) > RCC_LSE_TIMEOUT_VALUE)
 80018b6:	f7fe fecd 	bl	8000654 <HAL_GetTick>
 80018ba:	1bc0      	subs	r0, r0, r7
 80018bc:	4540      	cmp	r0, r8
 80018be:	d9b2      	bls.n	8001826 <HAL_RCC_OscConfig+0x282>
 80018c0:	e6d9      	b.n	8001676 <HAL_RCC_OscConfig+0xd2>
    if(__HAL_RCC_GET_SYSCLK_SOURCE() != RCC_CFGR_SWS_PLL)
 80018c2:	4e42      	ldr	r6, [pc, #264]	; (80019cc <HAL_RCC_OscConfig+0x428>)
 80018c4:	68b3      	ldr	r3, [r6, #8]
 80018c6:	f003 030c 	and.w	r3, r3, #12
 80018ca:	2b08      	cmp	r3, #8
 80018cc:	f43f aebb 	beq.w	8001646 <HAL_RCC_OscConfig+0xa2>
      if((RCC_OscInitStruct->PLL.PLLState) == RCC_PLL_ON)
 80018d0:	2a02      	cmp	r2, #2
 80018d2:	4d3f      	ldr	r5, [pc, #252]	; (80019d0 <HAL_RCC_OscConfig+0x42c>)
 80018d4:	d16a      	bne.n	80019ac <HAL_RCC_OscConfig+0x408>
        assert_param(IS_RCC_PLLSOURCE(RCC_OscInitStruct->PLL.PLLSource));
 80018d6:	69e3      	ldr	r3, [r4, #28]
 80018d8:	f433 0380 	bics.w	r3, r3, #4194304	; 0x400000
 80018dc:	d004      	beq.n	80018e8 <HAL_RCC_OscConfig+0x344>
 80018de:	f640 610c 	movw	r1, #3596	; 0xe0c
 80018e2:	483c      	ldr	r0, [pc, #240]	; (80019d4 <HAL_RCC_OscConfig+0x430>)
 80018e4:	f000 fe08 	bl	80024f8 <assert_failed>
        assert_param(IS_RCC_PLLM_VALUE(RCC_OscInitStruct->PLL.PLLM));
 80018e8:	6a23      	ldr	r3, [r4, #32]
 80018ea:	2b3f      	cmp	r3, #63	; 0x3f
 80018ec:	d904      	bls.n	80018f8 <HAL_RCC_OscConfig+0x354>
 80018ee:	f640 610d 	movw	r1, #3597	; 0xe0d
 80018f2:	4838      	ldr	r0, [pc, #224]	; (80019d4 <HAL_RCC_OscConfig+0x430>)
 80018f4:	f000 fe00 	bl	80024f8 <assert_failed>
        assert_param(IS_RCC_PLLN_VALUE(RCC_OscInitStruct->PLL.PLLN));
 80018f8:	6a63      	ldr	r3, [r4, #36]	; 0x24
 80018fa:	3b32      	subs	r3, #50	; 0x32
 80018fc:	f5b3 7fbf 	cmp.w	r3, #382	; 0x17e
 8001900:	d904      	bls.n	800190c <HAL_RCC_OscConfig+0x368>
 8001902:	f640 610e 	movw	r1, #3598	; 0xe0e
 8001906:	4833      	ldr	r0, [pc, #204]	; (80019d4 <HAL_RCC_OscConfig+0x430>)
 8001908:	f000 fdf6 	bl	80024f8 <assert_failed>
        assert_param(IS_RCC_PLLP_VALUE(RCC_OscInitStruct->PLL.PLLP));
 800190c:	6aa2      	ldr	r2, [r4, #40]	; 0x28
 800190e:	2a08      	cmp	r2, #8
 8001910:	d804      	bhi.n	800191c <HAL_RCC_OscConfig+0x378>
 8001912:	f44f 73aa 	mov.w	r3, #340	; 0x154
 8001916:	40d3      	lsrs	r3, r2
 8001918:	07d8      	lsls	r0, r3, #31
 800191a:	d404      	bmi.n	8001926 <HAL_RCC_OscConfig+0x382>
 800191c:	f640 610f 	movw	r1, #3599	; 0xe0f
 8001920:	482c      	ldr	r0, [pc, #176]	; (80019d4 <HAL_RCC_OscConfig+0x430>)
 8001922:	f000 fde9 	bl	80024f8 <assert_failed>
        assert_param(IS_RCC_PLLQ_VALUE(RCC_OscInitStruct->PLL.PLLQ));
 8001926:	6ae3      	ldr	r3, [r4, #44]	; 0x2c
 8001928:	3b02      	subs	r3, #2
 800192a:	2b0d      	cmp	r3, #13
 800192c:	d904      	bls.n	8001938 <HAL_RCC_OscConfig+0x394>
 800192e:	f44f 6161 	mov.w	r1, #3600	; 0xe10
 8001932:	4828      	ldr	r0, [pc, #160]	; (80019d4 <HAL_RCC_OscConfig+0x430>)
 8001934:	f000 fde0 	bl	80024f8 <assert_failed>
        assert_param(IS_RCC_PLLR_VALUE(RCC_OscInitStruct->PLL.PLLR));
 8001938:	6b23      	ldr	r3, [r4, #48]	; 0x30
 800193a:	3b02      	subs	r3, #2
 800193c:	2b05      	cmp	r3, #5
 800193e:	d904      	bls.n	800194a <HAL_RCC_OscConfig+0x3a6>
 8001940:	f640 6111 	movw	r1, #3601	; 0xe11
 8001944:	4823      	ldr	r0, [pc, #140]	; (80019d4 <HAL_RCC_OscConfig+0x430>)
 8001946:	f000 fdd7 	bl	80024f8 <assert_failed>
        __HAL_RCC_PLL_DISABLE();
 800194a:	2300      	movs	r3, #0
 800194c:	602b      	str	r3, [r5, #0]
        tickstart = HAL_GetTick();
 800194e:	f7fe fe81 	bl	8000654 <HAL_GetTick>
        while(__HAL_RCC_GET_FLAG(RCC_FLAG_PLLRDY) != RESET)
 8001952:	4e1e      	ldr	r6, [pc, #120]	; (80019cc <HAL_RCC_OscConfig+0x428>)
        tickstart = HAL_GetTick();
 8001954:	4607      	mov	r7, r0
        while(__HAL_RCC_GET_FLAG(RCC_FLAG_PLLRDY) != RESET)
 8001956:	6833      	ldr	r3, [r6, #0]
 8001958:	0199      	lsls	r1, r3, #6
 800195a:	d421      	bmi.n	80019a0 <HAL_RCC_OscConfig+0x3fc>
        __HAL_RCC_PLL_CONFIG(RCC_OscInitStruct->PLL.PLLSource,
 800195c:	6a22      	ldr	r2, [r4, #32]
 800195e:	69e3      	ldr	r3, [r4, #28]
 8001960:	4313      	orrs	r3, r2
 8001962:	6a62      	ldr	r2, [r4, #36]	; 0x24
 8001964:	ea43 1382 	orr.w	r3, r3, r2, lsl #6
 8001968:	6ae2      	ldr	r2, [r4, #44]	; 0x2c
 800196a:	ea43 6302 	orr.w	r3, r3, r2, lsl #24
 800196e:	6b22      	ldr	r2, [r4, #48]	; 0x30
 8001970:	ea43 7302 	orr.w	r3, r3, r2, lsl #28
 8001974:	6aa2      	ldr	r2, [r4, #40]	; 0x28
        while(__HAL_RCC_GET_FLAG(RCC_FLAG_PLLRDY) == RESET)
 8001976:	4c15      	ldr	r4, [pc, #84]	; (80019cc <HAL_RCC_OscConfig+0x428>)
        __HAL_RCC_PLL_CONFIG(RCC_OscInitStruct->PLL.PLLSource,
 8001978:	0852      	lsrs	r2, r2, #1
 800197a:	3a01      	subs	r2, #1
 800197c:	ea43 4302 	orr.w	r3, r3, r2, lsl #16
 8001980:	6073      	str	r3, [r6, #4]
        __HAL_RCC_PLL_ENABLE();
 8001982:	2301      	movs	r3, #1
 8001984:	602b      	str	r3, [r5, #0]
        tickstart = HAL_GetTick();
 8001986:	f7fe fe65 	bl	8000654 <HAL_GetTick>
 800198a:	4605      	mov	r5, r0
        while(__HAL_RCC_GET_FLAG(RCC_FLAG_PLLRDY) == RESET)
 800198c:	6823      	ldr	r3, [r4, #0]
 800198e:	019a      	lsls	r2, r3, #6
 8001990:	f53f ae2d 	bmi.w	80015ee <HAL_RCC_OscConfig+0x4a>
          if((HAL_GetTick() - tickstart ) > PLL_TIMEOUT_VALUE)
 8001994:	f7fe fe5e 	bl	8000654 <HAL_GetTick>
 8001998:	1b40      	subs	r0, r0, r5
 800199a:	2802      	cmp	r0, #2
 800199c:	d9f6      	bls.n	800198c <HAL_RCC_OscConfig+0x3e8>
 800199e:	e66a      	b.n	8001676 <HAL_RCC_OscConfig+0xd2>
          if((HAL_GetTick() - tickstart ) > PLL_TIMEOUT_VALUE)
 80019a0:	f7fe fe58 	bl	8000654 <HAL_GetTick>
 80019a4:	1bc0      	subs	r0, r0, r7
 80019a6:	2802      	cmp	r0, #2
 80019a8:	d9d5      	bls.n	8001956 <HAL_RCC_OscConfig+0x3b2>
 80019aa:	e664      	b.n	8001676 <HAL_RCC_OscConfig+0xd2>
        __HAL_RCC_PLL_DISABLE();
 80019ac:	2300      	movs	r3, #0
 80019ae:	602b      	str	r3, [r5, #0]
        tickstart = HAL_GetTick();
 80019b0:	f7fe fe50 	bl	8000654 <HAL_GetTick>
 80019b4:	4604      	mov	r4, r0
        while(__HAL_RCC_GET_FLAG(RCC_FLAG_PLLRDY) != RESET)
 80019b6:	6833      	ldr	r3, [r6, #0]
 80019b8:	019b      	lsls	r3, r3, #6
 80019ba:	f57f ae18 	bpl.w	80015ee <HAL_RCC_OscConfig+0x4a>
          if((HAL_GetTick() - tickstart ) > PLL_TIMEOUT_VALUE)
 80019be:	f7fe fe49 	bl	8000654 <HAL_GetTick>
 80019c2:	1b00      	subs	r0, r0, r4
 80019c4:	2802      	cmp	r0, #2
 80019c6:	d9f6      	bls.n	80019b6 <HAL_RCC_OscConfig+0x412>
 80019c8:	e655      	b.n	8001676 <HAL_RCC_OscConfig+0xd2>
 80019ca:	bf00      	nop
 80019cc:	40023800 	.word	0x40023800
 80019d0:	42470060 	.word	0x42470060
 80019d4:	0800316a 	.word	0x0800316a

080019d8 <UART_EndRxTransfer>:
  * @retval None
  */
static void UART_EndRxTransfer(UART_HandleTypeDef *huart)
{
  /* Disable RXNE, PE and ERR (Frame error, noise error, overrun error) interrupts */
  CLEAR_BIT(huart->Instance->CR1, (USART_CR1_RXNEIE | USART_CR1_PEIE));
 80019d8:	6803      	ldr	r3, [r0, #0]
 80019da:	68da      	ldr	r2, [r3, #12]
 80019dc:	f422 7290 	bic.w	r2, r2, #288	; 0x120
 80019e0:	60da      	str	r2, [r3, #12]
  CLEAR_BIT(huart->Instance->CR3, USART_CR3_EIE);
 80019e2:	695a      	ldr	r2, [r3, #20]
 80019e4:	f022 0201 	bic.w	r2, r2, #1
 80019e8:	615a      	str	r2, [r3, #20]

  /* At end of Rx process, restore huart->RxState to Ready */
  huart->RxState = HAL_UART_STATE_READY;
 80019ea:	2320      	movs	r3, #32
 80019ec:	f880 303a 	strb.w	r3, [r0, #58]	; 0x3a
 80019f0:	4770      	bx	lr
	...

080019f4 <UART_SetConfig>:
static void UART_SetConfig(UART_HandleTypeDef *huart)
{
  uint32_t tmpreg = 0x00U;
  
  /* Check the parameters */
  assert_param(IS_UART_BAUDRATE(huart->Init.BaudRate));
 80019f4:	6842      	ldr	r2, [r0, #4]
 80019f6:	4b9e      	ldr	r3, [pc, #632]	; (8001c70 <UART_SetConfig+0x27c>)
 80019f8:	429a      	cmp	r2, r3
{
 80019fa:	e92d 47f0 	stmdb	sp!, {r4, r5, r6, r7, r8, r9, sl, lr}
 80019fe:	4604      	mov	r4, r0
  assert_param(IS_UART_BAUDRATE(huart->Init.BaudRate));
 8001a00:	d904      	bls.n	8001a0c <UART_SetConfig+0x18>
 8001a02:	f640 1185 	movw	r1, #2437	; 0x985
 8001a06:	489b      	ldr	r0, [pc, #620]	; (8001c74 <UART_SetConfig+0x280>)
 8001a08:	f000 fd76 	bl	80024f8 <assert_failed>
  assert_param(IS_UART_STOPBITS(huart->Init.StopBits));
 8001a0c:	68e3      	ldr	r3, [r4, #12]
 8001a0e:	f433 5300 	bics.w	r3, r3, #8192	; 0x2000
 8001a12:	d004      	beq.n	8001a1e <UART_SetConfig+0x2a>
 8001a14:	f640 1186 	movw	r1, #2438	; 0x986
 8001a18:	4896      	ldr	r0, [pc, #600]	; (8001c74 <UART_SetConfig+0x280>)
 8001a1a:	f000 fd6d 	bl	80024f8 <assert_failed>
  assert_param(IS_UART_PARITY(huart->Init.Parity));
 8001a1e:	6923      	ldr	r3, [r4, #16]
 8001a20:	f433 6280 	bics.w	r2, r3, #1024	; 0x400
 8001a24:	d007      	beq.n	8001a36 <UART_SetConfig+0x42>
 8001a26:	f5b3 6fc0 	cmp.w	r3, #1536	; 0x600
 8001a2a:	d004      	beq.n	8001a36 <UART_SetConfig+0x42>
 8001a2c:	f640 1187 	movw	r1, #2439	; 0x987
 8001a30:	4890      	ldr	r0, [pc, #576]	; (8001c74 <UART_SetConfig+0x280>)
 8001a32:	f000 fd61 	bl	80024f8 <assert_failed>
  assert_param(IS_UART_MODE(huart->Init.Mode));
 8001a36:	6963      	ldr	r3, [r4, #20]
 8001a38:	f64f 72f3 	movw	r2, #65523	; 0xfff3
 8001a3c:	4213      	tst	r3, r2
 8001a3e:	d100      	bne.n	8001a42 <UART_SetConfig+0x4e>
 8001a40:	b923      	cbnz	r3, 8001a4c <UART_SetConfig+0x58>
 8001a42:	f640 1188 	movw	r1, #2440	; 0x988
 8001a46:	488b      	ldr	r0, [pc, #556]	; (8001c74 <UART_SetConfig+0x280>)
 8001a48:	f000 fd56 	bl	80024f8 <assert_failed>

  /*-------------------------- USART CR2 Configuration -----------------------*/
  tmpreg = huart->Instance->CR2;
 8001a4c:	6826      	ldr	r6, [r4, #0]

  /* Clear STOP[13:12] bits */
  tmpreg &= (uint32_t)~((uint32_t)USART_CR2_STOP);

  /* Configure the UART Stop Bits: Set STOP[13:12] bits according to huart->Init.StopBits value */
  tmpreg |= (uint32_t)huart->Init.StopBits;
 8001a4e:	68e2      	ldr	r2, [r4, #12]
  tmpreg = huart->Instance->CR2;
 8001a50:	6933      	ldr	r3, [r6, #16]
  /* Configure the UART Word Length, Parity and mode: 
     Set the M bits according to huart->Init.WordLength value 
     Set PCE and PS bits according to huart->Init.Parity value
     Set TE and RE bits according to huart->Init.Mode value
     Set OVER8 bit according to huart->Init.OverSampling value */
  tmpreg |= (uint32_t)huart->Init.WordLength | huart->Init.Parity | huart->Init.Mode | huart->Init.OverSampling;
 8001a52:	6920      	ldr	r0, [r4, #16]
 8001a54:	69e1      	ldr	r1, [r4, #28]
  tmpreg &= (uint32_t)~((uint32_t)USART_CR2_STOP);
 8001a56:	f423 5340 	bic.w	r3, r3, #12288	; 0x3000
  tmpreg |= (uint32_t)huart->Init.StopBits;
 8001a5a:	4313      	orrs	r3, r2
  WRITE_REG(huart->Instance->CR2, (uint32_t)tmpreg);
 8001a5c:	6133      	str	r3, [r6, #16]
  tmpreg |= (uint32_t)huart->Init.WordLength | huart->Init.Parity | huart->Init.Mode | huart->Init.OverSampling;
 8001a5e:	68a3      	ldr	r3, [r4, #8]
  tmpreg = huart->Instance->CR1;
 8001a60:	68f2      	ldr	r2, [r6, #12]
  tmpreg |= (uint32_t)huart->Init.WordLength | huart->Init.Parity | huart->Init.Mode | huart->Init.OverSampling;
 8001a62:	4303      	orrs	r3, r0
 8001a64:	6960      	ldr	r0, [r4, #20]
  tmpreg &= (uint32_t)~((uint32_t)(USART_CR1_M | USART_CR1_PCE | USART_CR1_PS | USART_CR1_TE | \
 8001a66:	f422 4216 	bic.w	r2, r2, #38400	; 0x9600
  tmpreg |= (uint32_t)huart->Init.WordLength | huart->Init.Parity | huart->Init.Mode | huart->Init.OverSampling;
 8001a6a:	4303      	orrs	r3, r0
  tmpreg &= (uint32_t)~((uint32_t)(USART_CR1_M | USART_CR1_PCE | USART_CR1_PS | USART_CR1_TE | \
 8001a6c:	f022 020c 	bic.w	r2, r2, #12
  tmpreg |= (uint32_t)huart->Init.WordLength | huart->Init.Parity | huart->Init.Mode | huart->Init.OverSampling;
 8001a70:	430b      	orrs	r3, r1
 8001a72:	4313      	orrs	r3, r2
  
  /* Write to USART CR1 */
  WRITE_REG(huart->Instance->CR1, (uint32_t)tmpreg);
 8001a74:	60f3      	str	r3, [r6, #12]
  
  /*-------------------------- USART CR3 Configuration -----------------------*/  
  tmpreg = huart->Instance->CR3;
 8001a76:	6973      	ldr	r3, [r6, #20]
  
  /* Clear CTSE and RTSE bits */
  tmpreg &= (uint32_t)~((uint32_t)(USART_CR3_RTSE | USART_CR3_CTSE));
  
  /* Configure the UART HFC: Set CTSE and RTSE bits according to huart->Init.HwFlowCtl value */
  tmpreg |= huart->Init.HwFlowCtl;
 8001a78:	69a2      	ldr	r2, [r4, #24]
  tmpreg &= (uint32_t)~((uint32_t)(USART_CR3_RTSE | USART_CR3_CTSE));
 8001a7a:	f423 7340 	bic.w	r3, r3, #768	; 0x300
  tmpreg |= huart->Init.HwFlowCtl;
 8001a7e:	4313      	orrs	r3, r2
  
  /* Write to USART CR3 */
  WRITE_REG(huart->Instance->CR3, (uint32_t)tmpreg);
  
  /* Check the Over Sampling */
  if(huart->Init.OverSampling == UART_OVERSAMPLING_8)
 8001a80:	f5b1 4f00 	cmp.w	r1, #32768	; 0x8000
  WRITE_REG(huart->Instance->CR3, (uint32_t)tmpreg);
 8001a84:	6173      	str	r3, [r6, #20]
 8001a86:	4b7c      	ldr	r3, [pc, #496]	; (8001c78 <UART_SetConfig+0x284>)
  if(huart->Init.OverSampling == UART_OVERSAMPLING_8)
 8001a88:	d17c      	bne.n	8001b84 <UART_SetConfig+0x190>
  {
    /*-------------------------- USART BRR Configuration ---------------------*/
#if defined(USART6) 
    if((huart->Instance == USART1) || (huart->Instance == USART6))
 8001a8a:	429e      	cmp	r6, r3
 8001a8c:	d003      	beq.n	8001a96 <UART_SetConfig+0xa2>
 8001a8e:	f503 6380 	add.w	r3, r3, #1024	; 0x400
 8001a92:	429e      	cmp	r6, r3
 8001a94:	d144      	bne.n	8001b20 <UART_SetConfig+0x12c>
    {
      huart->Instance->BRR = UART_BRR_SAMPLING8(HAL_RCC_GetPCLK2Freq(), huart->Init.BaudRate);
 8001a96:	f7ff fd2d 	bl	80014f4 <HAL_RCC_GetPCLK2Freq>
 8001a9a:	2519      	movs	r5, #25
 8001a9c:	fb05 f300 	mul.w	r3, r5, r0
 8001aa0:	6860      	ldr	r0, [r4, #4]
 8001aa2:	f04f 0964 	mov.w	r9, #100	; 0x64
 8001aa6:	0040      	lsls	r0, r0, #1
 8001aa8:	fbb3 f3f0 	udiv	r3, r3, r0
 8001aac:	fbb3 f3f9 	udiv	r3, r3, r9
 8001ab0:	ea4f 1803 	mov.w	r8, r3, lsl #4
 8001ab4:	f7ff fd1e 	bl	80014f4 <HAL_RCC_GetPCLK2Freq>
 8001ab8:	6863      	ldr	r3, [r4, #4]
 8001aba:	4368      	muls	r0, r5
 8001abc:	005b      	lsls	r3, r3, #1
 8001abe:	fbb0 f7f3 	udiv	r7, r0, r3
 8001ac2:	f7ff fd17 	bl	80014f4 <HAL_RCC_GetPCLK2Freq>
 8001ac6:	6863      	ldr	r3, [r4, #4]
 8001ac8:	4368      	muls	r0, r5
 8001aca:	005b      	lsls	r3, r3, #1
 8001acc:	fbb0 f3f3 	udiv	r3, r0, r3
 8001ad0:	fbb3 f3f9 	udiv	r3, r3, r9
 8001ad4:	fb09 7313 	mls	r3, r9, r3, r7
 8001ad8:	00db      	lsls	r3, r3, #3
 8001ada:	3332      	adds	r3, #50	; 0x32
 8001adc:	fbb3 f3f9 	udiv	r3, r3, r9
 8001ae0:	005b      	lsls	r3, r3, #1
 8001ae2:	f403 77f8 	and.w	r7, r3, #496	; 0x1f0
 8001ae6:	f7ff fd05 	bl	80014f4 <HAL_RCC_GetPCLK2Freq>
 8001aea:	6862      	ldr	r2, [r4, #4]
 8001aec:	4368      	muls	r0, r5
 8001aee:	0052      	lsls	r2, r2, #1
 8001af0:	fbb0 faf2 	udiv	sl, r0, r2
 8001af4:	f7ff fcfe 	bl	80014f4 <HAL_RCC_GetPCLK2Freq>
      huart->Instance->BRR = UART_BRR_SAMPLING8(HAL_RCC_GetPCLK2Freq(), huart->Init.BaudRate);
    }	
#endif /* USART6 */
    else
    {
      huart->Instance->BRR = UART_BRR_SAMPLING8(HAL_RCC_GetPCLK1Freq(), huart->Init.BaudRate);
 8001af8:	6863      	ldr	r3, [r4, #4]
 8001afa:	4368      	muls	r0, r5
 8001afc:	005b      	lsls	r3, r3, #1
 8001afe:	fbb0 f3f3 	udiv	r3, r0, r3
 8001b02:	fbb3 f3f9 	udiv	r3, r3, r9
 8001b06:	fb09 a313 	mls	r3, r9, r3, sl
 8001b0a:	00db      	lsls	r3, r3, #3
 8001b0c:	3332      	adds	r3, #50	; 0x32
 8001b0e:	fbb3 f3f9 	udiv	r3, r3, r9
 8001b12:	f003 0307 	and.w	r3, r3, #7
 8001b16:	4443      	add	r3, r8
      huart->Instance->BRR = UART_BRR_SAMPLING16(HAL_RCC_GetPCLK2Freq(), huart->Init.BaudRate);
    }	
#endif /* USART6 */
    else
    {
      huart->Instance->BRR = UART_BRR_SAMPLING16(HAL_RCC_GetPCLK1Freq(), huart->Init.BaudRate);
 8001b18:	443b      	add	r3, r7
 8001b1a:	60b3      	str	r3, [r6, #8]
 8001b1c:	e8bd 87f0 	ldmia.w	sp!, {r4, r5, r6, r7, r8, r9, sl, pc}
      huart->Instance->BRR = UART_BRR_SAMPLING8(HAL_RCC_GetPCLK1Freq(), huart->Init.BaudRate);
 8001b20:	f7ff fcd8 	bl	80014d4 <HAL_RCC_GetPCLK1Freq>
 8001b24:	2519      	movs	r5, #25
 8001b26:	fb05 f300 	mul.w	r3, r5, r0
 8001b2a:	6860      	ldr	r0, [r4, #4]
 8001b2c:	f04f 0964 	mov.w	r9, #100	; 0x64
 8001b30:	0040      	lsls	r0, r0, #1
 8001b32:	fbb3 f3f0 	udiv	r3, r3, r0
 8001b36:	fbb3 f3f9 	udiv	r3, r3, r9
 8001b3a:	ea4f 1803 	mov.w	r8, r3, lsl #4
 8001b3e:	f7ff fcc9 	bl	80014d4 <HAL_RCC_GetPCLK1Freq>
 8001b42:	6863      	ldr	r3, [r4, #4]
 8001b44:	4368      	muls	r0, r5
 8001b46:	005b      	lsls	r3, r3, #1
 8001b48:	fbb0 f7f3 	udiv	r7, r0, r3
 8001b4c:	f7ff fcc2 	bl	80014d4 <HAL_RCC_GetPCLK1Freq>
 8001b50:	6863      	ldr	r3, [r4, #4]
 8001b52:	4368      	muls	r0, r5
 8001b54:	005b      	lsls	r3, r3, #1
 8001b56:	fbb0 f3f3 	udiv	r3, r0, r3
 8001b5a:	fbb3 f3f9 	udiv	r3, r3, r9
 8001b5e:	fb09 7313 	mls	r3, r9, r3, r7
 8001b62:	00db      	lsls	r3, r3, #3
 8001b64:	3332      	adds	r3, #50	; 0x32
 8001b66:	fbb3 f3f9 	udiv	r3, r3, r9
 8001b6a:	005b      	lsls	r3, r3, #1
 8001b6c:	f403 77f8 	and.w	r7, r3, #496	; 0x1f0
 8001b70:	f7ff fcb0 	bl	80014d4 <HAL_RCC_GetPCLK1Freq>
 8001b74:	6862      	ldr	r2, [r4, #4]
 8001b76:	4368      	muls	r0, r5
 8001b78:	0052      	lsls	r2, r2, #1
 8001b7a:	fbb0 faf2 	udiv	sl, r0, r2
 8001b7e:	f7ff fca9 	bl	80014d4 <HAL_RCC_GetPCLK1Freq>
 8001b82:	e7b9      	b.n	8001af8 <UART_SetConfig+0x104>
    if((huart->Instance == USART1) || (huart->Instance == USART6))
 8001b84:	429e      	cmp	r6, r3
 8001b86:	d002      	beq.n	8001b8e <UART_SetConfig+0x19a>
 8001b88:	4b3c      	ldr	r3, [pc, #240]	; (8001c7c <UART_SetConfig+0x288>)
 8001b8a:	429e      	cmp	r6, r3
 8001b8c:	d140      	bne.n	8001c10 <UART_SetConfig+0x21c>
      huart->Instance->BRR = UART_BRR_SAMPLING16(HAL_RCC_GetPCLK2Freq(), huart->Init.BaudRate);
 8001b8e:	f7ff fcb1 	bl	80014f4 <HAL_RCC_GetPCLK2Freq>
 8001b92:	6867      	ldr	r7, [r4, #4]
 8001b94:	2519      	movs	r5, #25
 8001b96:	f04f 0964 	mov.w	r9, #100	; 0x64
 8001b9a:	fb05 f300 	mul.w	r3, r5, r0
 8001b9e:	00bf      	lsls	r7, r7, #2
 8001ba0:	fbb3 f3f7 	udiv	r3, r3, r7
 8001ba4:	fbb3 f3f9 	udiv	r3, r3, r9
 8001ba8:	011f      	lsls	r7, r3, #4
 8001baa:	f7ff fca3 	bl	80014f4 <HAL_RCC_GetPCLK2Freq>
 8001bae:	6863      	ldr	r3, [r4, #4]
 8001bb0:	4368      	muls	r0, r5
 8001bb2:	009b      	lsls	r3, r3, #2
 8001bb4:	fbb0 f8f3 	udiv	r8, r0, r3
 8001bb8:	f7ff fc9c 	bl	80014f4 <HAL_RCC_GetPCLK2Freq>
 8001bbc:	6863      	ldr	r3, [r4, #4]
 8001bbe:	4368      	muls	r0, r5
 8001bc0:	009b      	lsls	r3, r3, #2
 8001bc2:	fbb0 f3f3 	udiv	r3, r0, r3
 8001bc6:	fbb3 f3f9 	udiv	r3, r3, r9
 8001bca:	fb09 8313 	mls	r3, r9, r3, r8
 8001bce:	011b      	lsls	r3, r3, #4
 8001bd0:	3332      	adds	r3, #50	; 0x32
 8001bd2:	fbb3 f3f9 	udiv	r3, r3, r9
 8001bd6:	f003 08f0 	and.w	r8, r3, #240	; 0xf0
 8001bda:	f7ff fc8b 	bl	80014f4 <HAL_RCC_GetPCLK2Freq>
 8001bde:	6862      	ldr	r2, [r4, #4]
 8001be0:	4368      	muls	r0, r5
 8001be2:	0092      	lsls	r2, r2, #2
 8001be4:	fbb0 faf2 	udiv	sl, r0, r2
 8001be8:	f7ff fc84 	bl	80014f4 <HAL_RCC_GetPCLK2Freq>
      huart->Instance->BRR = UART_BRR_SAMPLING16(HAL_RCC_GetPCLK1Freq(), huart->Init.BaudRate);
 8001bec:	6863      	ldr	r3, [r4, #4]
 8001bee:	4368      	muls	r0, r5
 8001bf0:	009b      	lsls	r3, r3, #2
 8001bf2:	fbb0 f3f3 	udiv	r3, r0, r3
 8001bf6:	fbb3 f3f9 	udiv	r3, r3, r9
 8001bfa:	fb09 a313 	mls	r3, r9, r3, sl
 8001bfe:	011b      	lsls	r3, r3, #4
 8001c00:	3332      	adds	r3, #50	; 0x32
 8001c02:	fbb3 f3f9 	udiv	r3, r3, r9
 8001c06:	f003 030f 	and.w	r3, r3, #15
 8001c0a:	ea43 0308 	orr.w	r3, r3, r8
 8001c0e:	e783      	b.n	8001b18 <UART_SetConfig+0x124>
 8001c10:	f7ff fc60 	bl	80014d4 <HAL_RCC_GetPCLK1Freq>
 8001c14:	6867      	ldr	r7, [r4, #4]
 8001c16:	2519      	movs	r5, #25
 8001c18:	f04f 0964 	mov.w	r9, #100	; 0x64
 8001c1c:	fb05 f300 	mul.w	r3, r5, r0
 8001c20:	00bf      	lsls	r7, r7, #2
 8001c22:	fbb3 f3f7 	udiv	r3, r3, r7
 8001c26:	fbb3 f3f9 	udiv	r3, r3, r9
 8001c2a:	011f      	lsls	r7, r3, #4
 8001c2c:	f7ff fc52 	bl	80014d4 <HAL_RCC_GetPCLK1Freq>
 8001c30:	6863      	ldr	r3, [r4, #4]
 8001c32:	4368      	muls	r0, r5
 8001c34:	009b      	lsls	r3, r3, #2
 8001c36:	fbb0 f8f3 	udiv	r8, r0, r3
 8001c3a:	f7ff fc4b 	bl	80014d4 <HAL_RCC_GetPCLK1Freq>
 8001c3e:	6863      	ldr	r3, [r4, #4]
 8001c40:	4368      	muls	r0, r5
 8001c42:	009b      	lsls	r3, r3, #2
 8001c44:	fbb0 f3f3 	udiv	r3, r0, r3
 8001c48:	fbb3 f3f9 	udiv	r3, r3, r9
 8001c4c:	fb09 8313 	mls	r3, r9, r3, r8
 8001c50:	011b      	lsls	r3, r3, #4
 8001c52:	3332      	adds	r3, #50	; 0x32
 8001c54:	fbb3 f3f9 	udiv	r3, r3, r9
 8001c58:	f003 08f0 	and.w	r8, r3, #240	; 0xf0
 8001c5c:	f7ff fc3a 	bl	80014d4 <HAL_RCC_GetPCLK1Freq>
 8001c60:	6862      	ldr	r2, [r4, #4]
 8001c62:	4368      	muls	r0, r5
 8001c64:	0092      	lsls	r2, r2, #2
 8001c66:	fbb0 faf2 	udiv	sl, r0, r2
 8001c6a:	f7ff fc33 	bl	80014d4 <HAL_RCC_GetPCLK1Freq>
 8001c6e:	e7bd      	b.n	8001bec <UART_SetConfig+0x1f8>
 8001c70:	00a037a0 	.word	0x00a037a0
 8001c74:	080031a5 	.word	0x080031a5
 8001c78:	40011000 	.word	0x40011000
 8001c7c:	40011400 	.word	0x40011400

08001c80 <UART_WaitOnFlagUntilTimeout.constprop.3>:
static HAL_StatusTypeDef UART_WaitOnFlagUntilTimeout(UART_HandleTypeDef *huart, uint32_t Flag, FlagStatus Status, uint32_t Tickstart, uint32_t Timeout)
 8001c80:	b5f8      	push	{r3, r4, r5, r6, r7, lr}
 8001c82:	4604      	mov	r4, r0
 8001c84:	460e      	mov	r6, r1
 8001c86:	4617      	mov	r7, r2
 8001c88:	461d      	mov	r5, r3
  while((__HAL_UART_GET_FLAG(huart, Flag) ? SET : RESET) == Status) 
 8001c8a:	6821      	ldr	r1, [r4, #0]
 8001c8c:	680b      	ldr	r3, [r1, #0]
 8001c8e:	ea36 0303 	bics.w	r3, r6, r3
 8001c92:	d101      	bne.n	8001c98 <UART_WaitOnFlagUntilTimeout.constprop.3+0x18>
  return HAL_OK;
 8001c94:	2000      	movs	r0, #0
}
 8001c96:	bdf8      	pop	{r3, r4, r5, r6, r7, pc}
    if(Timeout != HAL_MAX_DELAY)
 8001c98:	1c6b      	adds	r3, r5, #1
 8001c9a:	d0f7      	beq.n	8001c8c <UART_WaitOnFlagUntilTimeout.constprop.3+0xc>
      if((Timeout == 0U)||((HAL_GetTick() - Tickstart ) > Timeout))
 8001c9c:	b995      	cbnz	r5, 8001cc4 <UART_WaitOnFlagUntilTimeout.constprop.3+0x44>
        CLEAR_BIT(huart->Instance->CR1, (USART_CR1_RXNEIE | USART_CR1_PEIE | USART_CR1_TXEIE));
 8001c9e:	6823      	ldr	r3, [r4, #0]
 8001ca0:	68da      	ldr	r2, [r3, #12]
 8001ca2:	f422 72d0 	bic.w	r2, r2, #416	; 0x1a0
 8001ca6:	60da      	str	r2, [r3, #12]
        CLEAR_BIT(huart->Instance->CR3, USART_CR3_EIE);
 8001ca8:	695a      	ldr	r2, [r3, #20]
 8001caa:	f022 0201 	bic.w	r2, r2, #1
 8001cae:	615a      	str	r2, [r3, #20]
        huart->gState  = HAL_UART_STATE_READY;
 8001cb0:	2320      	movs	r3, #32
 8001cb2:	f884 3039 	strb.w	r3, [r4, #57]	; 0x39
        huart->RxState = HAL_UART_STATE_READY;
 8001cb6:	f884 303a 	strb.w	r3, [r4, #58]	; 0x3a
        __HAL_UNLOCK(huart);
 8001cba:	2300      	movs	r3, #0
 8001cbc:	f884 3038 	strb.w	r3, [r4, #56]	; 0x38
 8001cc0:	2003      	movs	r0, #3
 8001cc2:	bdf8      	pop	{r3, r4, r5, r6, r7, pc}
      if((Timeout == 0U)||((HAL_GetTick() - Tickstart ) > Timeout))
 8001cc4:	f7fe fcc6 	bl	8000654 <HAL_GetTick>
 8001cc8:	1bc0      	subs	r0, r0, r7
 8001cca:	4285      	cmp	r5, r0
 8001ccc:	d2dd      	bcs.n	8001c8a <UART_WaitOnFlagUntilTimeout.constprop.3+0xa>
 8001cce:	e7e6      	b.n	8001c9e <UART_WaitOnFlagUntilTimeout.constprop.3+0x1e>

08001cd0 <HAL_UART_Init>:
{
 8001cd0:	b510      	push	{r4, lr}
  if(huart == NULL)
 8001cd2:	4604      	mov	r4, r0
 8001cd4:	2800      	cmp	r0, #0
 8001cd6:	d074      	beq.n	8001dc2 <HAL_UART_Init+0xf2>
  if(huart->Init.HwFlowCtl != UART_HWCONTROL_NONE)
 8001cd8:	6981      	ldr	r1, [r0, #24]
 8001cda:	6803      	ldr	r3, [r0, #0]
 8001cdc:	4a3a      	ldr	r2, [pc, #232]	; (8001dc8 <HAL_UART_Init+0xf8>)
 8001cde:	2900      	cmp	r1, #0
 8001ce0:	d057      	beq.n	8001d92 <HAL_UART_Init+0xc2>
    assert_param(IS_UART_HWFLOW_INSTANCE(huart->Instance));
 8001ce2:	4293      	cmp	r3, r2
 8001ce4:	d010      	beq.n	8001d08 <HAL_UART_Init+0x38>
 8001ce6:	f5a2 424c 	sub.w	r2, r2, #52224	; 0xcc00
 8001cea:	4293      	cmp	r3, r2
 8001cec:	d00c      	beq.n	8001d08 <HAL_UART_Init+0x38>
 8001cee:	f502 6280 	add.w	r2, r2, #1024	; 0x400
 8001cf2:	4293      	cmp	r3, r2
 8001cf4:	d008      	beq.n	8001d08 <HAL_UART_Init+0x38>
 8001cf6:	f502 424c 	add.w	r2, r2, #52224	; 0xcc00
 8001cfa:	4293      	cmp	r3, r2
 8001cfc:	d004      	beq.n	8001d08 <HAL_UART_Init+0x38>
 8001cfe:	f44f 7180 	mov.w	r1, #256	; 0x100
 8001d02:	4832      	ldr	r0, [pc, #200]	; (8001dcc <HAL_UART_Init+0xfc>)
 8001d04:	f000 fbf8 	bl	80024f8 <assert_failed>
    assert_param(IS_UART_HARDWARE_FLOW_CONTROL(huart->Init.HwFlowCtl));
 8001d08:	69a3      	ldr	r3, [r4, #24]
 8001d0a:	f433 7340 	bics.w	r3, r3, #768	; 0x300
 8001d0e:	d004      	beq.n	8001d1a <HAL_UART_Init+0x4a>
 8001d10:	f240 1101 	movw	r1, #257	; 0x101
    assert_param(IS_UART_INSTANCE(huart->Instance));
 8001d14:	482d      	ldr	r0, [pc, #180]	; (8001dcc <HAL_UART_Init+0xfc>)
 8001d16:	f000 fbef 	bl	80024f8 <assert_failed>
  assert_param(IS_UART_WORD_LENGTH(huart->Init.WordLength));
 8001d1a:	68a3      	ldr	r3, [r4, #8]
 8001d1c:	f433 5380 	bics.w	r3, r3, #4096	; 0x1000
 8001d20:	d004      	beq.n	8001d2c <HAL_UART_Init+0x5c>
 8001d22:	f240 1107 	movw	r1, #263	; 0x107
 8001d26:	4829      	ldr	r0, [pc, #164]	; (8001dcc <HAL_UART_Init+0xfc>)
 8001d28:	f000 fbe6 	bl	80024f8 <assert_failed>
  assert_param(IS_UART_OVERSAMPLING(huart->Init.OverSampling));
 8001d2c:	69e3      	ldr	r3, [r4, #28]
 8001d2e:	f433 4300 	bics.w	r3, r3, #32768	; 0x8000
 8001d32:	d004      	beq.n	8001d3e <HAL_UART_Init+0x6e>
 8001d34:	f44f 7184 	mov.w	r1, #264	; 0x108
 8001d38:	4824      	ldr	r0, [pc, #144]	; (8001dcc <HAL_UART_Init+0xfc>)
 8001d3a:	f000 fbdd 	bl	80024f8 <assert_failed>
  if(huart->gState == HAL_UART_STATE_RESET)
 8001d3e:	f894 3039 	ldrb.w	r3, [r4, #57]	; 0x39
 8001d42:	f003 02ff 	and.w	r2, r3, #255	; 0xff
 8001d46:	b923      	cbnz	r3, 8001d52 <HAL_UART_Init+0x82>
    huart->Lock = HAL_UNLOCKED;
 8001d48:	f884 2038 	strb.w	r2, [r4, #56]	; 0x38
    HAL_UART_MspInit(huart);
 8001d4c:	4620      	mov	r0, r4
 8001d4e:	f000 fc47 	bl	80025e0 <HAL_UART_MspInit>
  __HAL_UART_DISABLE(huart);
 8001d52:	6822      	ldr	r2, [r4, #0]
  huart->gState = HAL_UART_STATE_BUSY;
 8001d54:	2324      	movs	r3, #36	; 0x24
 8001d56:	f884 3039 	strb.w	r3, [r4, #57]	; 0x39
  __HAL_UART_DISABLE(huart);
 8001d5a:	68d3      	ldr	r3, [r2, #12]
 8001d5c:	f423 5300 	bic.w	r3, r3, #8192	; 0x2000
 8001d60:	60d3      	str	r3, [r2, #12]
  UART_SetConfig(huart);
 8001d62:	4620      	mov	r0, r4
 8001d64:	f7ff fe46 	bl	80019f4 <UART_SetConfig>
  CLEAR_BIT(huart->Instance->CR2, (USART_CR2_LINEN | USART_CR2_CLKEN));
 8001d68:	6823      	ldr	r3, [r4, #0]
 8001d6a:	691a      	ldr	r2, [r3, #16]
 8001d6c:	f422 4290 	bic.w	r2, r2, #18432	; 0x4800
 8001d70:	611a      	str	r2, [r3, #16]
  CLEAR_BIT(huart->Instance->CR3, (USART_CR3_SCEN | USART_CR3_HDSEL | USART_CR3_IREN));
 8001d72:	695a      	ldr	r2, [r3, #20]
 8001d74:	f022 022a 	bic.w	r2, r2, #42	; 0x2a
 8001d78:	615a      	str	r2, [r3, #20]
  __HAL_UART_ENABLE(huart);
 8001d7a:	68da      	ldr	r2, [r3, #12]
 8001d7c:	f442 5200 	orr.w	r2, r2, #8192	; 0x2000
 8001d80:	60da      	str	r2, [r3, #12]
  huart->ErrorCode = HAL_UART_ERROR_NONE;
 8001d82:	2000      	movs	r0, #0
  huart->gState= HAL_UART_STATE_READY;
 8001d84:	2320      	movs	r3, #32
  huart->ErrorCode = HAL_UART_ERROR_NONE;
 8001d86:	63e0      	str	r0, [r4, #60]	; 0x3c
  huart->gState= HAL_UART_STATE_READY;
 8001d88:	f884 3039 	strb.w	r3, [r4, #57]	; 0x39
  huart->RxState= HAL_UART_STATE_READY;
 8001d8c:	f884 303a 	strb.w	r3, [r4, #58]	; 0x3a
  return HAL_OK;
 8001d90:	bd10      	pop	{r4, pc}
    assert_param(IS_UART_INSTANCE(huart->Instance));
 8001d92:	4293      	cmp	r3, r2
 8001d94:	d0c1      	beq.n	8001d1a <HAL_UART_Init+0x4a>
 8001d96:	4a0e      	ldr	r2, [pc, #56]	; (8001dd0 <HAL_UART_Init+0x100>)
 8001d98:	4293      	cmp	r3, r2
 8001d9a:	d0be      	beq.n	8001d1a <HAL_UART_Init+0x4a>
 8001d9c:	f502 6280 	add.w	r2, r2, #1024	; 0x400
 8001da0:	4293      	cmp	r3, r2
 8001da2:	d0ba      	beq.n	8001d1a <HAL_UART_Init+0x4a>
 8001da4:	f502 6280 	add.w	r2, r2, #1024	; 0x400
 8001da8:	4293      	cmp	r3, r2
 8001daa:	d0b6      	beq.n	8001d1a <HAL_UART_Init+0x4a>
 8001dac:	f502 6280 	add.w	r2, r2, #1024	; 0x400
 8001db0:	4293      	cmp	r3, r2
 8001db2:	d0b2      	beq.n	8001d1a <HAL_UART_Init+0x4a>
 8001db4:	f502 4244 	add.w	r2, r2, #50176	; 0xc400
 8001db8:	4293      	cmp	r3, r2
 8001dba:	d0ae      	beq.n	8001d1a <HAL_UART_Init+0x4a>
 8001dbc:	f240 1105 	movw	r1, #261	; 0x105
 8001dc0:	e7a8      	b.n	8001d14 <HAL_UART_Init+0x44>
    return HAL_ERROR;
 8001dc2:	2001      	movs	r0, #1
}
 8001dc4:	bd10      	pop	{r4, pc}
 8001dc6:	bf00      	nop
 8001dc8:	40011000 	.word	0x40011000
 8001dcc:	080031a5 	.word	0x080031a5
 8001dd0:	40004400 	.word	0x40004400

08001dd4 <HAL_UART_Transmit>:
{
 8001dd4:	e92d 41f0 	stmdb	sp!, {r4, r5, r6, r7, r8, lr}
 8001dd8:	461f      	mov	r7, r3
  if(huart->gState == HAL_UART_STATE_READY) 
 8001dda:	f890 3039 	ldrb.w	r3, [r0, #57]	; 0x39
 8001dde:	2b20      	cmp	r3, #32
{
 8001de0:	4604      	mov	r4, r0
 8001de2:	460d      	mov	r5, r1
 8001de4:	4690      	mov	r8, r2
  if(huart->gState == HAL_UART_STATE_READY) 
 8001de6:	d14f      	bne.n	8001e88 <HAL_UART_Transmit+0xb4>
    if((pData == NULL ) || (Size == 0)) 
 8001de8:	2900      	cmp	r1, #0
 8001dea:	d04a      	beq.n	8001e82 <HAL_UART_Transmit+0xae>
 8001dec:	2a00      	cmp	r2, #0
 8001dee:	d048      	beq.n	8001e82 <HAL_UART_Transmit+0xae>
    __HAL_LOCK(huart);
 8001df0:	f890 3038 	ldrb.w	r3, [r0, #56]	; 0x38
 8001df4:	2b01      	cmp	r3, #1
 8001df6:	d047      	beq.n	8001e88 <HAL_UART_Transmit+0xb4>
 8001df8:	2301      	movs	r3, #1
 8001dfa:	f880 3038 	strb.w	r3, [r0, #56]	; 0x38
    huart->ErrorCode = HAL_UART_ERROR_NONE;
 8001dfe:	2300      	movs	r3, #0
 8001e00:	63c3      	str	r3, [r0, #60]	; 0x3c
    huart->gState = HAL_UART_STATE_BUSY_TX;
 8001e02:	2321      	movs	r3, #33	; 0x21
 8001e04:	f880 3039 	strb.w	r3, [r0, #57]	; 0x39
    tickstart = HAL_GetTick();
 8001e08:	f7fe fc24 	bl	8000654 <HAL_GetTick>
    huart->TxXferSize = Size;
 8001e0c:	f8a4 8024 	strh.w	r8, [r4, #36]	; 0x24
    tickstart = HAL_GetTick();
 8001e10:	4606      	mov	r6, r0
    huart->TxXferCount = Size;
 8001e12:	f8a4 8026 	strh.w	r8, [r4, #38]	; 0x26
    while(huart->TxXferCount > 0U)
 8001e16:	8ce3      	ldrh	r3, [r4, #38]	; 0x26
 8001e18:	b29b      	uxth	r3, r3
 8001e1a:	b96b      	cbnz	r3, 8001e38 <HAL_UART_Transmit+0x64>
    if(UART_WaitOnFlagUntilTimeout(huart, UART_FLAG_TC, RESET, tickstart, Timeout) != HAL_OK)
 8001e1c:	463b      	mov	r3, r7
 8001e1e:	4632      	mov	r2, r6
 8001e20:	2140      	movs	r1, #64	; 0x40
 8001e22:	4620      	mov	r0, r4
 8001e24:	f7ff ff2c 	bl	8001c80 <UART_WaitOnFlagUntilTimeout.constprop.3>
 8001e28:	b9b0      	cbnz	r0, 8001e58 <HAL_UART_Transmit+0x84>
      huart->gState = HAL_UART_STATE_READY;
 8001e2a:	2320      	movs	r3, #32
 8001e2c:	f884 3039 	strb.w	r3, [r4, #57]	; 0x39
    __HAL_UNLOCK(huart);
 8001e30:	f884 0038 	strb.w	r0, [r4, #56]	; 0x38
    return HAL_OK;
 8001e34:	e8bd 81f0 	ldmia.w	sp!, {r4, r5, r6, r7, r8, pc}
      huart->TxXferCount--;
 8001e38:	8ce3      	ldrh	r3, [r4, #38]	; 0x26
 8001e3a:	3b01      	subs	r3, #1
 8001e3c:	b29b      	uxth	r3, r3
 8001e3e:	84e3      	strh	r3, [r4, #38]	; 0x26
      if(huart->Init.WordLength == UART_WORDLENGTH_9B)
 8001e40:	68a3      	ldr	r3, [r4, #8]
 8001e42:	f5b3 5f80 	cmp.w	r3, #4096	; 0x1000
        if(UART_WaitOnFlagUntilTimeout(huart, UART_FLAG_TXE, RESET, tickstart, Timeout) != HAL_OK)
 8001e46:	4632      	mov	r2, r6
 8001e48:	463b      	mov	r3, r7
 8001e4a:	f04f 0180 	mov.w	r1, #128	; 0x80
 8001e4e:	4620      	mov	r0, r4
      if(huart->Init.WordLength == UART_WORDLENGTH_9B)
 8001e50:	d10e      	bne.n	8001e70 <HAL_UART_Transmit+0x9c>
        if(UART_WaitOnFlagUntilTimeout(huart, UART_FLAG_TXE, RESET, tickstart, Timeout) != HAL_OK)
 8001e52:	f7ff ff15 	bl	8001c80 <UART_WaitOnFlagUntilTimeout.constprop.3>
 8001e56:	b110      	cbz	r0, 8001e5e <HAL_UART_Transmit+0x8a>
          return HAL_TIMEOUT;
 8001e58:	2003      	movs	r0, #3
 8001e5a:	e8bd 81f0 	ldmia.w	sp!, {r4, r5, r6, r7, r8, pc}
        huart->Instance->DR = (*tmp & (uint16_t)0x01FF);
 8001e5e:	882b      	ldrh	r3, [r5, #0]
 8001e60:	6822      	ldr	r2, [r4, #0]
 8001e62:	f3c3 0308 	ubfx	r3, r3, #0, #9
 8001e66:	6053      	str	r3, [r2, #4]
        if(huart->Init.Parity == UART_PARITY_NONE)
 8001e68:	6923      	ldr	r3, [r4, #16]
 8001e6a:	b943      	cbnz	r3, 8001e7e <HAL_UART_Transmit+0xaa>
          pData +=2U;
 8001e6c:	3502      	adds	r5, #2
 8001e6e:	e7d2      	b.n	8001e16 <HAL_UART_Transmit+0x42>
        if(UART_WaitOnFlagUntilTimeout(huart, UART_FLAG_TXE, RESET, tickstart, Timeout) != HAL_OK)
 8001e70:	f7ff ff06 	bl	8001c80 <UART_WaitOnFlagUntilTimeout.constprop.3>
 8001e74:	2800      	cmp	r0, #0
 8001e76:	d1ef      	bne.n	8001e58 <HAL_UART_Transmit+0x84>
        huart->Instance->DR = (*pData++ & (uint8_t)0xFF);
 8001e78:	6823      	ldr	r3, [r4, #0]
 8001e7a:	782a      	ldrb	r2, [r5, #0]
 8001e7c:	605a      	str	r2, [r3, #4]
 8001e7e:	3501      	adds	r5, #1
 8001e80:	e7c9      	b.n	8001e16 <HAL_UART_Transmit+0x42>
      return  HAL_ERROR;
 8001e82:	2001      	movs	r0, #1
 8001e84:	e8bd 81f0 	ldmia.w	sp!, {r4, r5, r6, r7, r8, pc}
    return HAL_BUSY;
 8001e88:	2002      	movs	r0, #2
}
 8001e8a:	e8bd 81f0 	ldmia.w	sp!, {r4, r5, r6, r7, r8, pc}

08001e8e <HAL_UART_Receive_IT>:
  if(huart->RxState == HAL_UART_STATE_READY)
 8001e8e:	f890 303a 	ldrb.w	r3, [r0, #58]	; 0x3a
 8001e92:	2b20      	cmp	r3, #32
 8001e94:	d11c      	bne.n	8001ed0 <HAL_UART_Receive_IT+0x42>
    if((pData == NULL ) || (Size == 0)) 
 8001e96:	b1c9      	cbz	r1, 8001ecc <HAL_UART_Receive_IT+0x3e>
 8001e98:	b1c2      	cbz	r2, 8001ecc <HAL_UART_Receive_IT+0x3e>
    __HAL_LOCK(huart);
 8001e9a:	f890 3038 	ldrb.w	r3, [r0, #56]	; 0x38
 8001e9e:	2b01      	cmp	r3, #1
 8001ea0:	d016      	beq.n	8001ed0 <HAL_UART_Receive_IT+0x42>
    huart->RxXferCount = Size;
 8001ea2:	85c2      	strh	r2, [r0, #46]	; 0x2e
    huart->RxXferSize = Size;
 8001ea4:	8582      	strh	r2, [r0, #44]	; 0x2c
    huart->ErrorCode = HAL_UART_ERROR_NONE;
 8001ea6:	2300      	movs	r3, #0
    huart->RxState = HAL_UART_STATE_BUSY_RX;
 8001ea8:	2222      	movs	r2, #34	; 0x22
    huart->ErrorCode = HAL_UART_ERROR_NONE;
 8001eaa:	63c3      	str	r3, [r0, #60]	; 0x3c
    huart->RxState = HAL_UART_STATE_BUSY_RX;
 8001eac:	f880 203a 	strb.w	r2, [r0, #58]	; 0x3a
    SET_BIT(huart->Instance->CR3, USART_CR3_EIE);
 8001eb0:	6802      	ldr	r2, [r0, #0]
    huart->pRxBuffPtr = pData;
 8001eb2:	6281      	str	r1, [r0, #40]	; 0x28
    SET_BIT(huart->Instance->CR3, USART_CR3_EIE);
 8001eb4:	6951      	ldr	r1, [r2, #20]
    __HAL_UNLOCK(huart);
 8001eb6:	f880 3038 	strb.w	r3, [r0, #56]	; 0x38
    SET_BIT(huart->Instance->CR3, USART_CR3_EIE);
 8001eba:	f041 0101 	orr.w	r1, r1, #1
 8001ebe:	6151      	str	r1, [r2, #20]
    SET_BIT(huart->Instance->CR1, USART_CR1_PEIE | USART_CR1_RXNEIE);
 8001ec0:	68d1      	ldr	r1, [r2, #12]
 8001ec2:	f441 7190 	orr.w	r1, r1, #288	; 0x120
 8001ec6:	60d1      	str	r1, [r2, #12]
    return HAL_OK;
 8001ec8:	4618      	mov	r0, r3
 8001eca:	4770      	bx	lr
      return HAL_ERROR;
 8001ecc:	2001      	movs	r0, #1
 8001ece:	4770      	bx	lr
    return HAL_BUSY; 
 8001ed0:	2002      	movs	r0, #2
}
 8001ed2:	4770      	bx	lr

08001ed4 <HAL_UART_TxCpltCallback>:
 8001ed4:	4770      	bx	lr

08001ed6 <UART_Receive_IT>:
  if(huart->RxState == HAL_UART_STATE_BUSY_RX) 
 8001ed6:	f890 303a 	ldrb.w	r3, [r0, #58]	; 0x3a
 8001eda:	2b22      	cmp	r3, #34	; 0x22
{
 8001edc:	b510      	push	{r4, lr}
  if(huart->RxState == HAL_UART_STATE_BUSY_RX) 
 8001ede:	d132      	bne.n	8001f46 <UART_Receive_IT+0x70>
    if(huart->Init.WordLength == UART_WORDLENGTH_9B)
 8001ee0:	6883      	ldr	r3, [r0, #8]
 8001ee2:	6901      	ldr	r1, [r0, #16]
 8001ee4:	6802      	ldr	r2, [r0, #0]
 8001ee6:	f5b3 5f80 	cmp.w	r3, #4096	; 0x1000
 8001eea:	6a83      	ldr	r3, [r0, #40]	; 0x28
 8001eec:	d11f      	bne.n	8001f2e <UART_Receive_IT+0x58>
        *tmp = (uint16_t)(huart->Instance->DR & (uint16_t)0x01FF);
 8001eee:	6852      	ldr	r2, [r2, #4]
      if(huart->Init.Parity == UART_PARITY_NONE)
 8001ef0:	b9c9      	cbnz	r1, 8001f26 <UART_Receive_IT+0x50>
        *tmp = (uint16_t)(huart->Instance->DR & (uint16_t)0x01FF);
 8001ef2:	f3c2 0208 	ubfx	r2, r2, #0, #9
 8001ef6:	f823 2b02 	strh.w	r2, [r3], #2
        huart->pRxBuffPtr += 1U;
 8001efa:	6283      	str	r3, [r0, #40]	; 0x28
    if(--huart->RxXferCount == 0U)
 8001efc:	8dc4      	ldrh	r4, [r0, #46]	; 0x2e
 8001efe:	3c01      	subs	r4, #1
 8001f00:	b2a4      	uxth	r4, r4
 8001f02:	85c4      	strh	r4, [r0, #46]	; 0x2e
 8001f04:	b96c      	cbnz	r4, 8001f22 <UART_Receive_IT+0x4c>
      CLEAR_BIT(huart->Instance->CR1, (USART_CR1_RXNEIE | USART_CR1_PEIE));
 8001f06:	6803      	ldr	r3, [r0, #0]
 8001f08:	68da      	ldr	r2, [r3, #12]
 8001f0a:	f422 7290 	bic.w	r2, r2, #288	; 0x120
 8001f0e:	60da      	str	r2, [r3, #12]
      CLEAR_BIT(huart->Instance->CR3, USART_CR3_EIE);
 8001f10:	695a      	ldr	r2, [r3, #20]
 8001f12:	f022 0201 	bic.w	r2, r2, #1
 8001f16:	615a      	str	r2, [r3, #20]
      huart->RxState = HAL_UART_STATE_READY;
 8001f18:	2320      	movs	r3, #32
 8001f1a:	f880 303a 	strb.w	r3, [r0, #58]	; 0x3a
      HAL_UART_RxCpltCallback(huart);
 8001f1e:	f000 fac7 	bl	80024b0 <HAL_UART_RxCpltCallback>
    if(--huart->RxXferCount == 0U)
 8001f22:	2000      	movs	r0, #0
}
 8001f24:	bd10      	pop	{r4, pc}
        *tmp = (uint16_t)(huart->Instance->DR & (uint16_t)0x00FF);
 8001f26:	b2d2      	uxtb	r2, r2
 8001f28:	f823 2b01 	strh.w	r2, [r3], #1
 8001f2c:	e7e5      	b.n	8001efa <UART_Receive_IT+0x24>
      if(huart->Init.Parity == UART_PARITY_NONE)
 8001f2e:	b921      	cbnz	r1, 8001f3a <UART_Receive_IT+0x64>
        *huart->pRxBuffPtr++ = (uint8_t)(huart->Instance->DR & (uint8_t)0x00FF);
 8001f30:	1c59      	adds	r1, r3, #1
 8001f32:	6852      	ldr	r2, [r2, #4]
 8001f34:	6281      	str	r1, [r0, #40]	; 0x28
        *huart->pRxBuffPtr++ = (uint8_t)(huart->Instance->DR & (uint8_t)0x007F);
 8001f36:	701a      	strb	r2, [r3, #0]
 8001f38:	e7e0      	b.n	8001efc <UART_Receive_IT+0x26>
 8001f3a:	6852      	ldr	r2, [r2, #4]
 8001f3c:	1c59      	adds	r1, r3, #1
 8001f3e:	6281      	str	r1, [r0, #40]	; 0x28
 8001f40:	f002 027f 	and.w	r2, r2, #127	; 0x7f
 8001f44:	e7f7      	b.n	8001f36 <UART_Receive_IT+0x60>
    return HAL_BUSY;
 8001f46:	2002      	movs	r0, #2
 8001f48:	bd10      	pop	{r4, pc}

08001f4a <HAL_UART_ErrorCallback>:
 8001f4a:	4770      	bx	lr

08001f4c <HAL_UART_IRQHandler>:
   uint32_t isrflags   = READ_REG(huart->Instance->SR);
 8001f4c:	6803      	ldr	r3, [r0, #0]
 8001f4e:	681a      	ldr	r2, [r3, #0]
   uint32_t cr1its     = READ_REG(huart->Instance->CR1);
 8001f50:	68d9      	ldr	r1, [r3, #12]
{
 8001f52:	b570      	push	{r4, r5, r6, lr}
  if(errorflags == RESET)
 8001f54:	0716      	lsls	r6, r2, #28
{
 8001f56:	4604      	mov	r4, r0
   uint32_t cr3its     = READ_REG(huart->Instance->CR3);
 8001f58:	695d      	ldr	r5, [r3, #20]
  if(errorflags == RESET)
 8001f5a:	d107      	bne.n	8001f6c <HAL_UART_IRQHandler+0x20>
    if(((isrflags & USART_SR_RXNE) != RESET) && ((cr1its & USART_CR1_RXNEIE) != RESET))
 8001f5c:	0696      	lsls	r6, r2, #26
 8001f5e:	d55a      	bpl.n	8002016 <HAL_UART_IRQHandler+0xca>
 8001f60:	068d      	lsls	r5, r1, #26
 8001f62:	d558      	bpl.n	8002016 <HAL_UART_IRQHandler+0xca>
}
 8001f64:	e8bd 4070 	ldmia.w	sp!, {r4, r5, r6, lr}
      UART_Receive_IT(huart);
 8001f68:	f7ff bfb5 	b.w	8001ed6 <UART_Receive_IT>
  if((errorflags != RESET) && (((cr3its & USART_CR3_EIE) != RESET) || ((cr1its & (USART_CR1_RXNEIE | USART_CR1_PEIE)) != RESET)))
 8001f6c:	f015 0501 	ands.w	r5, r5, #1
 8001f70:	d102      	bne.n	8001f78 <HAL_UART_IRQHandler+0x2c>
 8001f72:	f411 7f90 	tst.w	r1, #288	; 0x120
 8001f76:	d04e      	beq.n	8002016 <HAL_UART_IRQHandler+0xca>
    if(((isrflags & USART_SR_PE) != RESET) && ((cr1its & USART_CR1_PEIE) != RESET))
 8001f78:	07d3      	lsls	r3, r2, #31
 8001f7a:	d505      	bpl.n	8001f88 <HAL_UART_IRQHandler+0x3c>
 8001f7c:	05ce      	lsls	r6, r1, #23
      huart->ErrorCode |= HAL_UART_ERROR_PE;
 8001f7e:	bf42      	ittt	mi
 8001f80:	6be3      	ldrmi	r3, [r4, #60]	; 0x3c
 8001f82:	f043 0301 	orrmi.w	r3, r3, #1
 8001f86:	63e3      	strmi	r3, [r4, #60]	; 0x3c
    if(((isrflags & USART_SR_NE) != RESET) && ((cr3its & USART_CR3_EIE) != RESET))
 8001f88:	0750      	lsls	r0, r2, #29
 8001f8a:	d504      	bpl.n	8001f96 <HAL_UART_IRQHandler+0x4a>
 8001f8c:	b11d      	cbz	r5, 8001f96 <HAL_UART_IRQHandler+0x4a>
      huart->ErrorCode |= HAL_UART_ERROR_NE;
 8001f8e:	6be3      	ldr	r3, [r4, #60]	; 0x3c
 8001f90:	f043 0302 	orr.w	r3, r3, #2
 8001f94:	63e3      	str	r3, [r4, #60]	; 0x3c
    if(((isrflags & USART_SR_FE) != RESET) && ((cr3its & USART_CR3_EIE) != RESET))
 8001f96:	0793      	lsls	r3, r2, #30
 8001f98:	d504      	bpl.n	8001fa4 <HAL_UART_IRQHandler+0x58>
 8001f9a:	b11d      	cbz	r5, 8001fa4 <HAL_UART_IRQHandler+0x58>
      huart->ErrorCode |= HAL_UART_ERROR_FE;
 8001f9c:	6be3      	ldr	r3, [r4, #60]	; 0x3c
 8001f9e:	f043 0304 	orr.w	r3, r3, #4
 8001fa2:	63e3      	str	r3, [r4, #60]	; 0x3c
    if(((isrflags & USART_SR_ORE) != RESET) && ((cr3its & USART_CR3_EIE) != RESET))
 8001fa4:	0716      	lsls	r6, r2, #28
 8001fa6:	d504      	bpl.n	8001fb2 <HAL_UART_IRQHandler+0x66>
 8001fa8:	b11d      	cbz	r5, 8001fb2 <HAL_UART_IRQHandler+0x66>
      huart->ErrorCode |= HAL_UART_ERROR_ORE;
 8001faa:	6be3      	ldr	r3, [r4, #60]	; 0x3c
 8001fac:	f043 0308 	orr.w	r3, r3, #8
 8001fb0:	63e3      	str	r3, [r4, #60]	; 0x3c
    if(huart->ErrorCode != HAL_UART_ERROR_NONE)
 8001fb2:	6be3      	ldr	r3, [r4, #60]	; 0x3c
 8001fb4:	2b00      	cmp	r3, #0
 8001fb6:	d066      	beq.n	8002086 <HAL_UART_IRQHandler+0x13a>
      if(((isrflags & USART_SR_RXNE) != RESET) && ((cr1its & USART_CR1_RXNEIE) != RESET))
 8001fb8:	0695      	lsls	r5, r2, #26
 8001fba:	d504      	bpl.n	8001fc6 <HAL_UART_IRQHandler+0x7a>
 8001fbc:	0688      	lsls	r0, r1, #26
 8001fbe:	d502      	bpl.n	8001fc6 <HAL_UART_IRQHandler+0x7a>
        UART_Receive_IT(huart);
 8001fc0:	4620      	mov	r0, r4
 8001fc2:	f7ff ff88 	bl	8001ed6 <UART_Receive_IT>
      dmarequest = HAL_IS_BIT_SET(huart->Instance->CR3, USART_CR3_DMAR);
 8001fc6:	6823      	ldr	r3, [r4, #0]
 8001fc8:	695d      	ldr	r5, [r3, #20]
      if(((huart->ErrorCode & HAL_UART_ERROR_ORE) != RESET) || dmarequest)
 8001fca:	6be2      	ldr	r2, [r4, #60]	; 0x3c
 8001fcc:	0711      	lsls	r1, r2, #28
        UART_EndRxTransfer(huart);
 8001fce:	4620      	mov	r0, r4
      if(((huart->ErrorCode & HAL_UART_ERROR_ORE) != RESET) || dmarequest)
 8001fd0:	d402      	bmi.n	8001fd8 <HAL_UART_IRQHandler+0x8c>
 8001fd2:	f015 0540 	ands.w	r5, r5, #64	; 0x40
 8001fd6:	d01a      	beq.n	800200e <HAL_UART_IRQHandler+0xc2>
        UART_EndRxTransfer(huart);
 8001fd8:	f7ff fcfe 	bl	80019d8 <UART_EndRxTransfer>
        if(HAL_IS_BIT_SET(huart->Instance->CR3, USART_CR3_DMAR))
 8001fdc:	6823      	ldr	r3, [r4, #0]
 8001fde:	695a      	ldr	r2, [r3, #20]
 8001fe0:	0652      	lsls	r2, r2, #25
 8001fe2:	d510      	bpl.n	8002006 <HAL_UART_IRQHandler+0xba>
          CLEAR_BIT(huart->Instance->CR3, USART_CR3_DMAR);
 8001fe4:	695a      	ldr	r2, [r3, #20]
          if(huart->hdmarx != NULL)
 8001fe6:	6b60      	ldr	r0, [r4, #52]	; 0x34
          CLEAR_BIT(huart->Instance->CR3, USART_CR3_DMAR);
 8001fe8:	f022 0240 	bic.w	r2, r2, #64	; 0x40
 8001fec:	615a      	str	r2, [r3, #20]
          if(huart->hdmarx != NULL)
 8001fee:	b150      	cbz	r0, 8002006 <HAL_UART_IRQHandler+0xba>
            huart->hdmarx->XferAbortCallback = UART_DMAAbortOnError;
 8001ff0:	4b25      	ldr	r3, [pc, #148]	; (8002088 <HAL_UART_IRQHandler+0x13c>)
 8001ff2:	6503      	str	r3, [r0, #80]	; 0x50
            if(HAL_DMA_Abort_IT(huart->hdmarx) != HAL_OK)
 8001ff4:	f7fe fbf1 	bl	80007da <HAL_DMA_Abort_IT>
 8001ff8:	2800      	cmp	r0, #0
 8001ffa:	d044      	beq.n	8002086 <HAL_UART_IRQHandler+0x13a>
              huart->hdmarx->XferAbortCallback(huart->hdmarx);
 8001ffc:	6b60      	ldr	r0, [r4, #52]	; 0x34
}
 8001ffe:	e8bd 4070 	ldmia.w	sp!, {r4, r5, r6, lr}
              huart->hdmarx->XferAbortCallback(huart->hdmarx);
 8002002:	6d03      	ldr	r3, [r0, #80]	; 0x50
 8002004:	4718      	bx	r3
            HAL_UART_ErrorCallback(huart);
 8002006:	4620      	mov	r0, r4
 8002008:	f7ff ff9f 	bl	8001f4a <HAL_UART_ErrorCallback>
 800200c:	bd70      	pop	{r4, r5, r6, pc}
        HAL_UART_ErrorCallback(huart);
 800200e:	f7ff ff9c 	bl	8001f4a <HAL_UART_ErrorCallback>
        huart->ErrorCode = HAL_UART_ERROR_NONE;
 8002012:	63e5      	str	r5, [r4, #60]	; 0x3c
 8002014:	bd70      	pop	{r4, r5, r6, pc}
  if(((isrflags & USART_SR_TXE) != RESET) && ((cr1its & USART_CR1_TXEIE) != RESET))
 8002016:	0616      	lsls	r6, r2, #24
 8002018:	d527      	bpl.n	800206a <HAL_UART_IRQHandler+0x11e>
 800201a:	060d      	lsls	r5, r1, #24
 800201c:	d525      	bpl.n	800206a <HAL_UART_IRQHandler+0x11e>
  if(huart->gState == HAL_UART_STATE_BUSY_TX)
 800201e:	f894 2039 	ldrb.w	r2, [r4, #57]	; 0x39
 8002022:	2a21      	cmp	r2, #33	; 0x21
 8002024:	d12f      	bne.n	8002086 <HAL_UART_IRQHandler+0x13a>
    if(huart->Init.WordLength == UART_WORDLENGTH_9B)
 8002026:	68a2      	ldr	r2, [r4, #8]
 8002028:	f5b2 5f80 	cmp.w	r2, #4096	; 0x1000
 800202c:	6a22      	ldr	r2, [r4, #32]
 800202e:	d117      	bne.n	8002060 <HAL_UART_IRQHandler+0x114>
      huart->Instance->DR = (uint16_t)(*tmp & (uint16_t)0x01FF);
 8002030:	8811      	ldrh	r1, [r2, #0]
 8002032:	f3c1 0108 	ubfx	r1, r1, #0, #9
 8002036:	6059      	str	r1, [r3, #4]
      if(huart->Init.Parity == UART_PARITY_NONE)
 8002038:	6921      	ldr	r1, [r4, #16]
 800203a:	b979      	cbnz	r1, 800205c <HAL_UART_IRQHandler+0x110>
        huart->pTxBuffPtr += 2U;
 800203c:	3202      	adds	r2, #2
        huart->pTxBuffPtr += 1U;
 800203e:	6222      	str	r2, [r4, #32]
    if(--huart->TxXferCount == 0U)
 8002040:	8ce2      	ldrh	r2, [r4, #38]	; 0x26
 8002042:	3a01      	subs	r2, #1
 8002044:	b292      	uxth	r2, r2
 8002046:	84e2      	strh	r2, [r4, #38]	; 0x26
 8002048:	b9ea      	cbnz	r2, 8002086 <HAL_UART_IRQHandler+0x13a>
      CLEAR_BIT(huart->Instance->CR1, USART_CR1_TXEIE);
 800204a:	68da      	ldr	r2, [r3, #12]
 800204c:	f022 0280 	bic.w	r2, r2, #128	; 0x80
 8002050:	60da      	str	r2, [r3, #12]
      SET_BIT(huart->Instance->CR1, USART_CR1_TCIE);
 8002052:	68da      	ldr	r2, [r3, #12]
 8002054:	f042 0240 	orr.w	r2, r2, #64	; 0x40
 8002058:	60da      	str	r2, [r3, #12]
 800205a:	bd70      	pop	{r4, r5, r6, pc}
        huart->pTxBuffPtr += 1U;
 800205c:	3201      	adds	r2, #1
 800205e:	e7ee      	b.n	800203e <HAL_UART_IRQHandler+0xf2>
      huart->Instance->DR = (uint8_t)(*huart->pTxBuffPtr++ & (uint8_t)0x00FF);
 8002060:	1c51      	adds	r1, r2, #1
 8002062:	6221      	str	r1, [r4, #32]
 8002064:	7812      	ldrb	r2, [r2, #0]
 8002066:	605a      	str	r2, [r3, #4]
 8002068:	e7ea      	b.n	8002040 <HAL_UART_IRQHandler+0xf4>
  if(((isrflags & USART_SR_TC) != RESET) && ((cr1its & USART_CR1_TCIE) != RESET))
 800206a:	0650      	lsls	r0, r2, #25
 800206c:	d50b      	bpl.n	8002086 <HAL_UART_IRQHandler+0x13a>
 800206e:	064a      	lsls	r2, r1, #25
 8002070:	d509      	bpl.n	8002086 <HAL_UART_IRQHandler+0x13a>
  CLEAR_BIT(huart->Instance->CR1, USART_CR1_TCIE);
 8002072:	68da      	ldr	r2, [r3, #12]
 8002074:	f022 0240 	bic.w	r2, r2, #64	; 0x40
 8002078:	60da      	str	r2, [r3, #12]
  huart->gState = HAL_UART_STATE_READY;
 800207a:	2320      	movs	r3, #32
 800207c:	f884 3039 	strb.w	r3, [r4, #57]	; 0x39
  HAL_UART_TxCpltCallback(huart);
 8002080:	4620      	mov	r0, r4
 8002082:	f7ff ff27 	bl	8001ed4 <HAL_UART_TxCpltCallback>
 8002086:	bd70      	pop	{r4, r5, r6, pc}
 8002088:	0800208d 	.word	0x0800208d

0800208c <UART_DMAAbortOnError>:
{
 800208c:	b508      	push	{r3, lr}
  UART_HandleTypeDef* huart = ( UART_HandleTypeDef* )((DMA_HandleTypeDef* )hdma)->Parent;
 800208e:	6b80      	ldr	r0, [r0, #56]	; 0x38
  huart->RxXferCount = 0U;
 8002090:	2300      	movs	r3, #0
 8002092:	85c3      	strh	r3, [r0, #46]	; 0x2e
  huart->TxXferCount = 0U;
 8002094:	84c3      	strh	r3, [r0, #38]	; 0x26
  HAL_UART_ErrorCallback(huart);
 8002096:	f7ff ff58 	bl	8001f4a <HAL_UART_ErrorCallback>
 800209a:	bd08      	pop	{r3, pc}

0800209c <read_byte>:

	HAL_UART_Transmit(&huart2, (uint8_t *) output_str, len, 0xffff);
}


uint8_t read_byte(uint8_t addr) {
 800209c:	b530      	push	{r4, r5, lr}
 800209e:	b085      	sub	sp, #20
	uint8_t addr_arr[1] = {addr};
 80020a0:	aa04      	add	r2, sp, #16
	HAL_I2C_Master_Transmit(&hi2c1, I2C_ADDR_ACC, addr_arr, 1, 0xffff);
 80020a2:	4c0b      	ldr	r4, [pc, #44]	; (80020d0 <read_byte+0x34>)
	uint8_t addr_arr[1] = {addr};
 80020a4:	f802 0d08 	strb.w	r0, [r2, #-8]!
	HAL_I2C_Master_Transmit(&hi2c1, I2C_ADDR_ACC, addr_arr, 1, 0xffff);
 80020a8:	f64f 75ff 	movw	r5, #65535	; 0xffff
 80020ac:	9500      	str	r5, [sp, #0]
 80020ae:	2301      	movs	r3, #1
 80020b0:	213c      	movs	r1, #60	; 0x3c
 80020b2:	4620      	mov	r0, r4
 80020b4:	f7fe fec8 	bl	8000e48 <HAL_I2C_Master_Transmit>
	uint8_t val[1];
	HAL_I2C_Master_Receive(&hi2c1, I2C_ADDR_ACC, val, 1, 0xffff);
 80020b8:	9500      	str	r5, [sp, #0]
 80020ba:	2301      	movs	r3, #1
 80020bc:	aa03      	add	r2, sp, #12
 80020be:	213c      	movs	r1, #60	; 0x3c
 80020c0:	4620      	mov	r0, r4
 80020c2:	f7fe ff97 	bl	8000ff4 <HAL_I2C_Master_Receive>
	return val[0];
}
 80020c6:	f89d 000c 	ldrb.w	r0, [sp, #12]
 80020ca:	b005      	add	sp, #20
 80020cc:	bd30      	pop	{r4, r5, pc}
 80020ce:	bf00      	nop
 80020d0:	200000b0 	.word	0x200000b0

080020d4 <read_short>:

int16_t read_short(uint8_t addr) {
 80020d4:	b538      	push	{r3, r4, r5, lr}
 80020d6:	4605      	mov	r5, r0
	uint8_t b1 = read_byte(addr + 1);
 80020d8:	3001      	adds	r0, #1
 80020da:	b2c0      	uxtb	r0, r0
 80020dc:	f7ff ffde 	bl	800209c <read_byte>
 80020e0:	4604      	mov	r4, r0
	uint8_t b0 = read_byte(addr);
 80020e2:	4628      	mov	r0, r5
 80020e4:	f7ff ffda 	bl	800209c <read_byte>
	int16_t out = b1 << 8 | b0;
 80020e8:	ea40 2004 	orr.w	r0, r0, r4, lsl #8
	return out;
}
 80020ec:	b200      	sxth	r0, r0
 80020ee:	bd38      	pop	{r3, r4, r5, pc}

080020f0 <read_acc_data>:
	} else {
		return -val;
	}
}

void read_acc_data() {
 80020f0:	b538      	push	{r3, r4, r5, lr}
	last_acc_x = read_short(0x28);
 80020f2:	2028      	movs	r0, #40	; 0x28
 80020f4:	f7ff ffee 	bl	80020d4 <read_short>
 80020f8:	4d0e      	ldr	r5, [pc, #56]	; (8002134 <read_acc_data+0x44>)
	last_acc_y = read_short(0x2a);
 80020fa:	4c0f      	ldr	r4, [pc, #60]	; (8002138 <read_acc_data+0x48>)
	last_acc_x = read_short(0x28);
 80020fc:	8028      	strh	r0, [r5, #0]
	last_acc_y = read_short(0x2a);
 80020fe:	202a      	movs	r0, #42	; 0x2a
 8002100:	f7ff ffe8 	bl	80020d4 <read_short>
 8002104:	8020      	strh	r0, [r4, #0]
	last_acc_z = read_short(0x2c);
 8002106:	202c      	movs	r0, #44	; 0x2c
 8002108:	f7ff ffe4 	bl	80020d4 <read_short>

	int16_t acc_abs = absolute(last_acc_x);
 800210c:	f9b5 1000 	ldrsh.w	r1, [r5]
	last_acc_z = read_short(0x2c);
 8002110:	4b0a      	ldr	r3, [pc, #40]	; (800213c <read_acc_data+0x4c>)
	if (val >= 0) {
 8002112:	2900      	cmp	r1, #0
	last_acc_z = read_short(0x2c);
 8002114:	8018      	strh	r0, [r3, #0]
		return -val;
 8002116:	bfbc      	itt	lt
 8002118:	424b      	neglt	r3, r1
 800211a:	b219      	sxthlt	r1, r3
	int16_t tmp = absolute(last_acc_y);
 800211c:	f9b4 3000 	ldrsh.w	r3, [r4]
	if (val >= 0) {
 8002120:	2b00      	cmp	r3, #0
		return -val;
 8002122:	bfbc      	itt	lt
 8002124:	425a      	neglt	r2, r3
 8002126:	b213      	sxthlt	r3, r2
	// Uncomment to care about the z-axis:
	// tmp = absolute(last_acc_z);
	// if (tmp > acc_abs) {
	//	 acc_abs = tmp;
	// }
	last_acc_abs = acc_abs;
 8002128:	428b      	cmp	r3, r1
 800212a:	4a05      	ldr	r2, [pc, #20]	; (8002140 <read_acc_data+0x50>)
 800212c:	bfb8      	it	lt
 800212e:	460b      	movlt	r3, r1
 8002130:	8013      	strh	r3, [r2, #0]
 8002132:	bd38      	pop	{r3, r4, r5, pc}
 8002134:	20000090 	.word	0x20000090
 8002138:	20000092 	.word	0x20000092
 800213c:	20000094 	.word	0x20000094
 8002140:	2000008e 	.word	0x2000008e

08002144 <write_debug>:
void write_debug(char *str, ...) {
 8002144:	b40f      	push	{r0, r1, r2, r3}
 8002146:	b580      	push	{r7, lr}
 8002148:	b082      	sub	sp, #8
 800214a:	af00      	add	r7, sp, #0
 800214c:	f107 0310 	add.w	r3, r7, #16
	char output_str[PRINT_DEBUG_BUFFER_SIZE];
 8002150:	f5ad 7d00 	sub.w	sp, sp, #512	; 0x200
void write_debug(char *str, ...) {
 8002154:	f853 2b04 	ldr.w	r2, [r3], #4
	va_start(args, str);
 8002158:	607b      	str	r3, [r7, #4]
	int len = vsnprintf(output_str, PRINT_DEBUG_BUFFER_SIZE, str, args);
 800215a:	f44f 7100 	mov.w	r1, #512	; 0x200
 800215e:	4668      	mov	r0, sp
 8002160:	f000 fb7e 	bl	8002860 <vsniprintf>
		len = PRINT_DEBUG_BUFFER_SIZE - 1;
 8002164:	f240 12ff 	movw	r2, #511	; 0x1ff
 8002168:	f5b0 7f00 	cmp.w	r0, #512	; 0x200
 800216c:	bf28      	it	cs
 800216e:	4610      	movcs	r0, r2
	HAL_UART_Transmit(&huart2, (uint8_t *) output_str, len, 0xffff);
 8002170:	b282      	uxth	r2, r0
 8002172:	f64f 73ff 	movw	r3, #65535	; 0xffff
 8002176:	4669      	mov	r1, sp
 8002178:	4804      	ldr	r0, [pc, #16]	; (800218c <write_debug+0x48>)
 800217a:	f7ff fe2b 	bl	8001dd4 <HAL_UART_Transmit>
}
 800217e:	3708      	adds	r7, #8
 8002180:	46bd      	mov	sp, r7
 8002182:	e8bd 4080 	ldmia.w	sp!, {r7, lr}
 8002186:	b004      	add	sp, #16
 8002188:	4770      	bx	lr
 800218a:	bf00      	nop
 800218c:	20000184 	.word	0x20000184

08002190 <SystemClock_Config>:
{
 8002190:	b530      	push	{r4, r5, lr}
 8002192:	b095      	sub	sp, #84	; 0x54
  __HAL_RCC_PWR_CLK_ENABLE();
 8002194:	4b29      	ldr	r3, [pc, #164]	; (800223c <SystemClock_Config+0xac>)
 8002196:	2100      	movs	r1, #0
 8002198:	9100      	str	r1, [sp, #0]
 800219a:	6c1a      	ldr	r2, [r3, #64]	; 0x40
 800219c:	f042 5280 	orr.w	r2, r2, #268435456	; 0x10000000
 80021a0:	641a      	str	r2, [r3, #64]	; 0x40
 80021a2:	6c1b      	ldr	r3, [r3, #64]	; 0x40
  __HAL_PWR_VOLTAGESCALING_CONFIG(PWR_REGULATOR_VOLTAGE_SCALE3);
 80021a4:	4a26      	ldr	r2, [pc, #152]	; (8002240 <SystemClock_Config+0xb0>)
  __HAL_RCC_PWR_CLK_ENABLE();
 80021a6:	f003 5380 	and.w	r3, r3, #268435456	; 0x10000000
 80021aa:	9300      	str	r3, [sp, #0]
 80021ac:	9b00      	ldr	r3, [sp, #0]
  __HAL_PWR_VOLTAGESCALING_CONFIG(PWR_REGULATOR_VOLTAGE_SCALE3);
 80021ae:	9101      	str	r1, [sp, #4]
 80021b0:	6813      	ldr	r3, [r2, #0]
 80021b2:	f423 4340 	bic.w	r3, r3, #49152	; 0xc000
 80021b6:	f443 4380 	orr.w	r3, r3, #16384	; 0x4000
 80021ba:	6013      	str	r3, [r2, #0]
 80021bc:	6813      	ldr	r3, [r2, #0]
 80021be:	f403 4340 	and.w	r3, r3, #49152	; 0xc000
 80021c2:	9301      	str	r3, [sp, #4]
 80021c4:	9b01      	ldr	r3, [sp, #4]
  RCC_OscInitStruct.OscillatorType = RCC_OSCILLATORTYPE_HSE;
 80021c6:	2301      	movs	r3, #1
 80021c8:	9307      	str	r3, [sp, #28]
  RCC_OscInitStruct.HSEState = RCC_HSE_ON;
 80021ca:	f44f 3380 	mov.w	r3, #65536	; 0x10000
 80021ce:	9308      	str	r3, [sp, #32]
  RCC_OscInitStruct.PLL.PLLSource = RCC_PLLSOURCE_HSE;
 80021d0:	f44f 0380 	mov.w	r3, #4194304	; 0x400000
 80021d4:	930e      	str	r3, [sp, #56]	; 0x38
  RCC_OscInitStruct.PLL.PLLM = 8;
 80021d6:	2308      	movs	r3, #8
  RCC_OscInitStruct.PLL.PLLState = RCC_PLL_ON;
 80021d8:	2402      	movs	r4, #2
  RCC_OscInitStruct.PLL.PLLM = 8;
 80021da:	930f      	str	r3, [sp, #60]	; 0x3c
  RCC_OscInitStruct.PLL.PLLP = RCC_PLLP_DIV4;
 80021dc:	2504      	movs	r5, #4
  RCC_OscInitStruct.PLL.PLLN = 336;
 80021de:	f44f 73a8 	mov.w	r3, #336	; 0x150
  if (HAL_RCC_OscConfig(&RCC_OscInitStruct) != HAL_OK)
 80021e2:	a807      	add	r0, sp, #28
  RCC_OscInitStruct.PLL.PLLState = RCC_PLL_ON;
 80021e4:	940d      	str	r4, [sp, #52]	; 0x34
  RCC_OscInitStruct.PLL.PLLN = 336;
 80021e6:	9310      	str	r3, [sp, #64]	; 0x40
  RCC_OscInitStruct.PLL.PLLP = RCC_PLLP_DIV4;
 80021e8:	9511      	str	r5, [sp, #68]	; 0x44
  RCC_OscInitStruct.PLL.PLLQ = 2;
 80021ea:	9412      	str	r4, [sp, #72]	; 0x48
  RCC_OscInitStruct.PLL.PLLR = 2;
 80021ec:	9413      	str	r4, [sp, #76]	; 0x4c
  if (HAL_RCC_OscConfig(&RCC_OscInitStruct) != HAL_OK)
 80021ee:	f7ff f9d9 	bl	80015a4 <HAL_RCC_OscConfig>
 80021f2:	b100      	cbz	r0, 80021f6 <SystemClock_Config+0x66>
 80021f4:	e7fe      	b.n	80021f4 <SystemClock_Config+0x64>
  RCC_ClkInitStruct.ClockType = RCC_CLOCKTYPE_HCLK|RCC_CLOCKTYPE_SYSCLK
 80021f6:	230f      	movs	r3, #15
 80021f8:	9302      	str	r3, [sp, #8]
  RCC_ClkInitStruct.AHBCLKDivider = RCC_SYSCLK_DIV1;
 80021fa:	9004      	str	r0, [sp, #16]
  RCC_ClkInitStruct.APB1CLKDivider = RCC_HCLK_DIV2;
 80021fc:	f44f 5380 	mov.w	r3, #4096	; 0x1000
  RCC_ClkInitStruct.APB2CLKDivider = RCC_HCLK_DIV1;
 8002200:	9006      	str	r0, [sp, #24]
  if (HAL_RCC_ClockConfig(&RCC_ClkInitStruct, FLASH_LATENCY_2) != HAL_OK)
 8002202:	4621      	mov	r1, r4
 8002204:	a802      	add	r0, sp, #8
  RCC_ClkInitStruct.SYSCLKSource = RCC_SYSCLKSOURCE_PLLCLK;
 8002206:	9403      	str	r4, [sp, #12]
  RCC_ClkInitStruct.APB1CLKDivider = RCC_HCLK_DIV2;
 8002208:	9305      	str	r3, [sp, #20]
  if (HAL_RCC_ClockConfig(&RCC_ClkInitStruct, FLASH_LATENCY_2) != HAL_OK)
 800220a:	f7ff f869 	bl	80012e0 <HAL_RCC_ClockConfig>
 800220e:	4604      	mov	r4, r0
 8002210:	b100      	cbz	r0, 8002214 <SystemClock_Config+0x84>
 8002212:	e7fe      	b.n	8002212 <SystemClock_Config+0x82>
  HAL_SYSTICK_Config(HAL_RCC_GetHCLKFreq()/1000);
 8002214:	f7ff f958 	bl	80014c8 <HAL_RCC_GetHCLKFreq>
 8002218:	f44f 737a 	mov.w	r3, #1000	; 0x3e8
 800221c:	fbb0 f0f3 	udiv	r0, r0, r3
 8002220:	f7fe faa8 	bl	8000774 <HAL_SYSTICK_Config>
  HAL_SYSTICK_CLKSourceConfig(SYSTICK_CLKSOURCE_HCLK);
 8002224:	4628      	mov	r0, r5
 8002226:	f7fe fabb 	bl	80007a0 <HAL_SYSTICK_CLKSourceConfig>
  HAL_NVIC_SetPriority(SysTick_IRQn, 0, 0);
 800222a:	4622      	mov	r2, r4
 800222c:	4621      	mov	r1, r4
 800222e:	f04f 30ff 	mov.w	r0, #4294967295	; 0xffffffff
 8002232:	f7fe fa47 	bl	80006c4 <HAL_NVIC_SetPriority>
}
 8002236:	b015      	add	sp, #84	; 0x54
 8002238:	bd30      	pop	{r4, r5, pc}
 800223a:	bf00      	nop
 800223c:	40023800 	.word	0x40023800
 8002240:	40007000 	.word	0x40007000

08002244 <main>:
{
 8002244:	b580      	push	{r7, lr}
 8002246:	b08c      	sub	sp, #48	; 0x30
  __HAL_RCC_GPIOC_CLK_ENABLE();
 8002248:	2400      	movs	r4, #0
  HAL_Init();
 800224a:	f7fe f9dd 	bl	8000608 <HAL_Init>
  SystemClock_Config();
 800224e:	f7ff ff9f 	bl	8002190 <SystemClock_Config>
  __HAL_RCC_GPIOC_CLK_ENABLE();
 8002252:	4b7c      	ldr	r3, [pc, #496]	; (8002444 <main+0x200>)
 8002254:	9403      	str	r4, [sp, #12]
 8002256:	6b1a      	ldr	r2, [r3, #48]	; 0x30
  HAL_GPIO_WritePin(LD2_GPIO_Port, LD2_Pin, GPIO_PIN_RESET);
 8002258:	487b      	ldr	r0, [pc, #492]	; (8002448 <main+0x204>)
  __HAL_RCC_GPIOC_CLK_ENABLE();
 800225a:	f042 0204 	orr.w	r2, r2, #4
 800225e:	631a      	str	r2, [r3, #48]	; 0x30
 8002260:	6b1a      	ldr	r2, [r3, #48]	; 0x30
 8002262:	f002 0204 	and.w	r2, r2, #4
 8002266:	9203      	str	r2, [sp, #12]
 8002268:	9a03      	ldr	r2, [sp, #12]
  __HAL_RCC_GPIOH_CLK_ENABLE();
 800226a:	9404      	str	r4, [sp, #16]
 800226c:	6b1a      	ldr	r2, [r3, #48]	; 0x30
 800226e:	f042 0280 	orr.w	r2, r2, #128	; 0x80
 8002272:	631a      	str	r2, [r3, #48]	; 0x30
 8002274:	6b1a      	ldr	r2, [r3, #48]	; 0x30
 8002276:	f002 0280 	and.w	r2, r2, #128	; 0x80
 800227a:	9204      	str	r2, [sp, #16]
 800227c:	9a04      	ldr	r2, [sp, #16]
  __HAL_RCC_GPIOA_CLK_ENABLE();
 800227e:	9405      	str	r4, [sp, #20]
 8002280:	6b1a      	ldr	r2, [r3, #48]	; 0x30
 8002282:	f042 0201 	orr.w	r2, r2, #1
 8002286:	631a      	str	r2, [r3, #48]	; 0x30
 8002288:	6b1a      	ldr	r2, [r3, #48]	; 0x30
 800228a:	f002 0201 	and.w	r2, r2, #1
 800228e:	9205      	str	r2, [sp, #20]
 8002290:	9a05      	ldr	r2, [sp, #20]
  __HAL_RCC_GPIOB_CLK_ENABLE();
 8002292:	9406      	str	r4, [sp, #24]
 8002294:	6b1a      	ldr	r2, [r3, #48]	; 0x30
 8002296:	f042 0202 	orr.w	r2, r2, #2
 800229a:	631a      	str	r2, [r3, #48]	; 0x30
 800229c:	6b1b      	ldr	r3, [r3, #48]	; 0x30
 800229e:	f003 0302 	and.w	r3, r3, #2
  HAL_GPIO_WritePin(LD2_GPIO_Port, LD2_Pin, GPIO_PIN_RESET);
 80022a2:	4622      	mov	r2, r4
  __HAL_RCC_GPIOB_CLK_ENABLE();
 80022a4:	9306      	str	r3, [sp, #24]
  HAL_GPIO_WritePin(LD2_GPIO_Port, LD2_Pin, GPIO_PIN_RESET);
 80022a6:	2120      	movs	r1, #32
  __HAL_RCC_GPIOB_CLK_ENABLE();
 80022a8:	9b06      	ldr	r3, [sp, #24]
  HAL_GPIO_WritePin(LD2_GPIO_Port, LD2_Pin, GPIO_PIN_RESET);
 80022aa:	f7fe fbe5 	bl	8000a78 <HAL_GPIO_WritePin>
  GPIO_InitStruct.Pin = B1_Pin;
 80022ae:	f44f 5300 	mov.w	r3, #8192	; 0x2000
 80022b2:	9307      	str	r3, [sp, #28]
  HAL_GPIO_Init(B1_GPIO_Port, &GPIO_InitStruct);
 80022b4:	a907      	add	r1, sp, #28
  GPIO_InitStruct.Mode = GPIO_MODE_IT_FALLING;
 80022b6:	4b65      	ldr	r3, [pc, #404]	; (800244c <main+0x208>)
  HAL_GPIO_Init(B1_GPIO_Port, &GPIO_InitStruct);
 80022b8:	4865      	ldr	r0, [pc, #404]	; (8002450 <main+0x20c>)
  GPIO_InitStruct.Mode = GPIO_MODE_IT_FALLING;
 80022ba:	9308      	str	r3, [sp, #32]
  GPIO_InitStruct.Pull = GPIO_NOPULL;
 80022bc:	9409      	str	r4, [sp, #36]	; 0x24
  GPIO_InitStruct.Mode = GPIO_MODE_OUTPUT_PP;
 80022be:	2701      	movs	r7, #1
  HAL_GPIO_Init(B1_GPIO_Port, &GPIO_InitStruct);
 80022c0:	f7fe fa9e 	bl	8000800 <HAL_GPIO_Init>
  GPIO_InitStruct.Pin = LD2_Pin;
 80022c4:	2320      	movs	r3, #32
  HAL_GPIO_Init(LD2_GPIO_Port, &GPIO_InitStruct);
 80022c6:	a907      	add	r1, sp, #28
 80022c8:	485f      	ldr	r0, [pc, #380]	; (8002448 <main+0x204>)
  GPIO_InitStruct.Pin = LD2_Pin;
 80022ca:	9307      	str	r3, [sp, #28]
  GPIO_InitStruct.Mode = GPIO_MODE_OUTPUT_PP;
 80022cc:	9708      	str	r7, [sp, #32]
  GPIO_InitStruct.Pull = GPIO_NOPULL;
 80022ce:	9409      	str	r4, [sp, #36]	; 0x24
  GPIO_InitStruct.Speed = GPIO_SPEED_FREQ_LOW;
 80022d0:	940a      	str	r4, [sp, #40]	; 0x28
  HAL_GPIO_Init(LD2_GPIO_Port, &GPIO_InitStruct);
 80022d2:	f7fe fa95 	bl	8000800 <HAL_GPIO_Init>
  huart2.Instance = USART2;
 80022d6:	485f      	ldr	r0, [pc, #380]	; (8002454 <main+0x210>)
  huart2.Init.BaudRate = 115200;
 80022d8:	495f      	ldr	r1, [pc, #380]	; (8002458 <main+0x214>)
  huart2.Init.WordLength = UART_WORDLENGTH_8B;
 80022da:	6084      	str	r4, [r0, #8]
  huart2.Init.BaudRate = 115200;
 80022dc:	f44f 33e1 	mov.w	r3, #115200	; 0x1c200
  huart2.Init.Mode = UART_MODE_TX_RX;
 80022e0:	260c      	movs	r6, #12
  huart2.Init.BaudRate = 115200;
 80022e2:	e880 000a 	stmia.w	r0, {r1, r3}
  huart2.Init.StopBits = UART_STOPBITS_1;
 80022e6:	60c4      	str	r4, [r0, #12]
  huart2.Init.Parity = UART_PARITY_NONE;
 80022e8:	6104      	str	r4, [r0, #16]
  huart2.Init.Mode = UART_MODE_TX_RX;
 80022ea:	6146      	str	r6, [r0, #20]
  huart2.Init.HwFlowCtl = UART_HWCONTROL_NONE;
 80022ec:	6184      	str	r4, [r0, #24]
  huart2.Init.OverSampling = UART_OVERSAMPLING_16;
 80022ee:	61c4      	str	r4, [r0, #28]
  if (HAL_UART_Init(&huart2) != HAL_OK)
 80022f0:	f7ff fcee 	bl	8001cd0 <HAL_UART_Init>
 80022f4:	b100      	cbz	r0, 80022f8 <main+0xb4>
 80022f6:	e7fe      	b.n	80022f6 <main+0xb2>
  hi2c1.Instance = I2C1;
 80022f8:	4c58      	ldr	r4, [pc, #352]	; (800245c <main+0x218>)
  hi2c1.Init.ClockSpeed = 100000;
 80022fa:	4b59      	ldr	r3, [pc, #356]	; (8002460 <main+0x21c>)
 80022fc:	4a59      	ldr	r2, [pc, #356]	; (8002464 <main+0x220>)
  hi2c1.Init.DutyCycle = I2C_DUTYCYCLE_2;
 80022fe:	60a0      	str	r0, [r4, #8]
  hi2c1.Init.ClockSpeed = 100000;
 8002300:	e884 000c 	stmia.w	r4, {r2, r3}
  hi2c1.Init.OwnAddress1 = 0;
 8002304:	60e0      	str	r0, [r4, #12]
  hi2c1.Init.AddressingMode = I2C_ADDRESSINGMODE_7BIT;
 8002306:	f44f 4380 	mov.w	r3, #16384	; 0x4000
  hi2c1.Init.DualAddressMode = I2C_DUALADDRESS_DISABLE;
 800230a:	6160      	str	r0, [r4, #20]
  hi2c1.Init.OwnAddress2 = 0;
 800230c:	61a0      	str	r0, [r4, #24]
  hi2c1.Init.GeneralCallMode = I2C_GENERALCALL_DISABLE;
 800230e:	61e0      	str	r0, [r4, #28]
  hi2c1.Init.NoStretchMode = I2C_NOSTRETCH_DISABLE;
 8002310:	6220      	str	r0, [r4, #32]
  if (HAL_I2C_Init(&hi2c1) != HAL_OK)
 8002312:	4620      	mov	r0, r4
  hi2c1.Init.AddressingMode = I2C_ADDRESSINGMODE_7BIT;
 8002314:	6123      	str	r3, [r4, #16]
  if (HAL_I2C_Init(&hi2c1) != HAL_OK)
 8002316:	f7fe fcc5 	bl	8000ca4 <HAL_I2C_Init>
 800231a:	b100      	cbz	r0, 800231e <main+0xda>
 800231c:	e7fe      	b.n	800231c <main+0xd8>
  huart1.Instance = USART1;
 800231e:	4d52      	ldr	r5, [pc, #328]	; (8002468 <main+0x224>)
  huart1.Init.BaudRate = 9600;
 8002320:	4b52      	ldr	r3, [pc, #328]	; (800246c <main+0x228>)
  huart1.Init.WordLength = UART_WORDLENGTH_8B;
 8002322:	60a8      	str	r0, [r5, #8]
  huart1.Init.BaudRate = 9600;
 8002324:	f44f 5816 	mov.w	r8, #9600	; 0x2580
  huart1.Init.StopBits = UART_STOPBITS_1;
 8002328:	60e8      	str	r0, [r5, #12]
  huart1.Init.Parity = UART_PARITY_NONE;
 800232a:	6128      	str	r0, [r5, #16]
  huart1.Init.HwFlowCtl = UART_HWCONTROL_NONE;
 800232c:	61a8      	str	r0, [r5, #24]
  huart1.Init.OverSampling = UART_OVERSAMPLING_16;
 800232e:	61e8      	str	r0, [r5, #28]
  if (HAL_UART_Init(&huart1) != HAL_OK)
 8002330:	4628      	mov	r0, r5
  huart1.Init.BaudRate = 9600;
 8002332:	e885 0108 	stmia.w	r5, {r3, r8}
  huart1.Init.Mode = UART_MODE_TX_RX;
 8002336:	616e      	str	r6, [r5, #20]
  if (HAL_UART_Init(&huart1) != HAL_OK)
 8002338:	f7ff fcca 	bl	8001cd0 <HAL_UART_Init>
 800233c:	b100      	cbz	r0, 8002340 <main+0xfc>
 800233e:	e7fe      	b.n	800233e <main+0xfa>
  huart4.Instance = UART4;
 8002340:	4b4b      	ldr	r3, [pc, #300]	; (8002470 <main+0x22c>)
 8002342:	4a4c      	ldr	r2, [pc, #304]	; (8002474 <main+0x230>)
  huart4.Init.WordLength = UART_WORDLENGTH_8B;
 8002344:	6098      	str	r0, [r3, #8]
  huart4.Init.StopBits = UART_STOPBITS_1;
 8002346:	60d8      	str	r0, [r3, #12]
  huart4.Init.Parity = UART_PARITY_NONE;
 8002348:	6118      	str	r0, [r3, #16]
  huart4.Init.HwFlowCtl = UART_HWCONTROL_NONE;
 800234a:	6198      	str	r0, [r3, #24]
  huart4.Init.OverSampling = UART_OVERSAMPLING_16;
 800234c:	61d8      	str	r0, [r3, #28]
  if (HAL_UART_Init(&huart4) != HAL_OK)
 800234e:	4618      	mov	r0, r3
  huart4.Init.BaudRate = 9600;
 8002350:	e883 0104 	stmia.w	r3, {r2, r8}
  huart4.Init.Mode = UART_MODE_TX_RX;
 8002354:	615e      	str	r6, [r3, #20]
  if (HAL_UART_Init(&huart4) != HAL_OK)
 8002356:	f7ff fcbb 	bl	8001cd0 <HAL_UART_Init>
 800235a:	b100      	cbz	r0, 800235e <main+0x11a>
 800235c:	e7fe      	b.n	800235c <main+0x118>
  uint8_t data[2] = {0x20, 0b01000111};
 800235e:	4b46      	ldr	r3, [pc, #280]	; (8002478 <main+0x234>)
		  write_debug("Crashing\n");
 8002360:	4e46      	ldr	r6, [pc, #280]	; (800247c <main+0x238>)
  uint8_t data[2] = {0x20, 0b01000111};
 8002362:	881b      	ldrh	r3, [r3, #0]
 8002364:	f8ad 301c 	strh.w	r3, [sp, #28]
  HAL_I2C_Master_Transmit(&hi2c1, 0b00111100, data, 2, 0xffff);
 8002368:	f64f 73ff 	movw	r3, #65535	; 0xffff
 800236c:	9300      	str	r3, [sp, #0]
 800236e:	aa07      	add	r2, sp, #28
 8002370:	2302      	movs	r3, #2
 8002372:	213c      	movs	r1, #60	; 0x3c
 8002374:	4620      	mov	r0, r4
 8002376:	f7fe fd67 	bl	8000e48 <HAL_I2C_Master_Transmit>
  HAL_UART_Receive_IT(&huart1, &bluetooth_command, 1);
 800237a:	4628      	mov	r0, r5
 800237c:	463a      	mov	r2, r7
 800237e:	4940      	ldr	r1, [pc, #256]	; (8002480 <main+0x23c>)
	  switch (state) {
 8002380:	4d40      	ldr	r5, [pc, #256]	; (8002484 <main+0x240>)
  HAL_UART_Receive_IT(&huart1, &bluetooth_command, 1);
 8002382:	f7ff fd84 	bl	8001e8e <HAL_UART_Receive_IT>
 8002386:	462c      	mov	r4, r5
	  switch (state) {
 8002388:	782b      	ldrb	r3, [r5, #0]
 800238a:	2b01      	cmp	r3, #1
 800238c:	d037      	beq.n	80023fe <main+0x1ba>
 800238e:	d309      	bcc.n	80023a4 <main+0x160>
 8002390:	2b02      	cmp	r3, #2
 8002392:	d1fa      	bne.n	800238a <main+0x146>
		  write_debug("Sending GPS data\n");
 8002394:	483c      	ldr	r0, [pc, #240]	; (8002488 <main+0x244>)
 8002396:	f7ff fed5 	bl	8002144 <write_debug>
		  state = WAIT_FOR_CRASH;
 800239a:	2300      	movs	r3, #0
 800239c:	7023      	strb	r3, [r4, #0]
		  HAL_Delay(3000);
 800239e:	f640 30b8 	movw	r0, #3000	; 0xbb8
 80023a2:	e029      	b.n	80023f8 <main+0x1b4>
		  read_acc_data();
 80023a4:	f7ff fea4 	bl	80020f0 <read_acc_data>
		  if (last_acc_abs > ACC_CRASH_THRESHOLD) {
 80023a8:	4b38      	ldr	r3, [pc, #224]	; (800248c <main+0x248>)
 80023aa:	4939      	ldr	r1, [pc, #228]	; (8002490 <main+0x24c>)
 80023ac:	f9b3 0000 	ldrsh.w	r0, [r3]
 80023b0:	4a38      	ldr	r2, [pc, #224]	; (8002494 <main+0x250>)
 80023b2:	f247 5330 	movw	r3, #30000	; 0x7530
 80023b6:	4298      	cmp	r0, r3
 80023b8:	4b37      	ldr	r3, [pc, #220]	; (8002498 <main+0x254>)
 80023ba:	dd12      	ble.n	80023e2 <main+0x19e>
			  state = CRASHING;
 80023bc:	2701      	movs	r7, #1
 80023be:	7027      	strb	r7, [r4, #0]
			  max_acc_x = last_acc_x;
 80023c0:	4f36      	ldr	r7, [pc, #216]	; (800249c <main+0x258>)
 80023c2:	f8b1 e000 	ldrh.w	lr, [r1]
 80023c6:	f8a7 e000 	strh.w	lr, [r7]
			  max_acc_y = last_acc_y;
 80023ca:	4f35      	ldr	r7, [pc, #212]	; (80024a0 <main+0x25c>)
 80023cc:	f8b2 e000 	ldrh.w	lr, [r2]
 80023d0:	f8a7 e000 	strh.w	lr, [r7]
			  max_acc_z = last_acc_z;
 80023d4:	4f33      	ldr	r7, [pc, #204]	; (80024a4 <main+0x260>)
 80023d6:	f8b3 e000 	ldrh.w	lr, [r3]
 80023da:	f8a7 e000 	strh.w	lr, [r7]
			  max_acc_abs = last_acc_abs;
 80023de:	4f32      	ldr	r7, [pc, #200]	; (80024a8 <main+0x264>)
 80023e0:	8038      	strh	r0, [r7, #0]
		  write_debug("Accel: %6d %6d %6d %6d\n", last_acc_x, last_acc_y, last_acc_z,
 80023e2:	f9b3 3000 	ldrsh.w	r3, [r3]
 80023e6:	f9b2 2000 	ldrsh.w	r2, [r2]
 80023ea:	f9b1 1000 	ldrsh.w	r1, [r1]
 80023ee:	9000      	str	r0, [sp, #0]
 80023f0:	482e      	ldr	r0, [pc, #184]	; (80024ac <main+0x268>)
 80023f2:	f7ff fea7 	bl	8002144 <write_debug>
		  HAL_Delay(25);
 80023f6:	2019      	movs	r0, #25
		  HAL_Delay(3000);
 80023f8:	f7fe f932 	bl	8000660 <HAL_Delay>
		  break;
 80023fc:	e7c4      	b.n	8002388 <main+0x144>
		  write_debug("Crashing\n");
 80023fe:	4630      	mov	r0, r6
 8002400:	f7ff fea0 	bl	8002144 <write_debug>
		  read_acc_data();
 8002404:	f7ff fe74 	bl	80020f0 <read_acc_data>
		  if (last_acc_abs < ACC_CRASH_THRESHOLD) {
 8002408:	4b20      	ldr	r3, [pc, #128]	; (800248c <main+0x248>)
 800240a:	f9b3 3000 	ldrsh.w	r3, [r3]
 800240e:	f247 522f 	movw	r2, #29999	; 0x752f
 8002412:	4293      	cmp	r3, r2
 8002414:	dc02      	bgt.n	800241c <main+0x1d8>
			  state = SEND_GPS;
 8002416:	2302      	movs	r3, #2
 8002418:	7023      	strb	r3, [r4, #0]
 800241a:	e7b5      	b.n	8002388 <main+0x144>
		  } else if (last_acc_abs > max_acc_abs) {
 800241c:	4a22      	ldr	r2, [pc, #136]	; (80024a8 <main+0x264>)
 800241e:	f9b2 1000 	ldrsh.w	r1, [r2]
 8002422:	4299      	cmp	r1, r3
 8002424:	dab0      	bge.n	8002388 <main+0x144>
			  max_acc_x = last_acc_x;
 8002426:	491a      	ldr	r1, [pc, #104]	; (8002490 <main+0x24c>)
			  max_acc_abs = last_acc_abs;
 8002428:	8013      	strh	r3, [r2, #0]
			  max_acc_x = last_acc_x;
 800242a:	8808      	ldrh	r0, [r1, #0]
 800242c:	491b      	ldr	r1, [pc, #108]	; (800249c <main+0x258>)
 800242e:	8008      	strh	r0, [r1, #0]
			  max_acc_y = last_acc_y;
 8002430:	4918      	ldr	r1, [pc, #96]	; (8002494 <main+0x250>)
 8002432:	8808      	ldrh	r0, [r1, #0]
 8002434:	491a      	ldr	r1, [pc, #104]	; (80024a0 <main+0x25c>)
 8002436:	8008      	strh	r0, [r1, #0]
			  max_acc_z = last_acc_z;
 8002438:	4917      	ldr	r1, [pc, #92]	; (8002498 <main+0x254>)
 800243a:	8808      	ldrh	r0, [r1, #0]
 800243c:	4919      	ldr	r1, [pc, #100]	; (80024a4 <main+0x260>)
 800243e:	8008      	strh	r0, [r1, #0]
 8002440:	e7a2      	b.n	8002388 <main+0x144>
 8002442:	bf00      	nop
 8002444:	40023800 	.word	0x40023800
 8002448:	40020000 	.word	0x40020000
 800244c:	10210000 	.word	0x10210000
 8002450:	40020800 	.word	0x40020800
 8002454:	20000184 	.word	0x20000184
 8002458:	40004400 	.word	0x40004400
 800245c:	200000b0 	.word	0x200000b0
 8002460:	000186a0 	.word	0x000186a0
 8002464:	40005400 	.word	0x40005400
 8002468:	20000104 	.word	0x20000104
 800246c:	40011000 	.word	0x40011000
 8002470:	20000144 	.word	0x20000144
 8002474:	40004c00 	.word	0x40004c00
 8002478:	08003084 	.word	0x08003084
 800247c:	08003213 	.word	0x08003213
 8002480:	2000008c 	.word	0x2000008c
 8002484:	2000009e 	.word	0x2000009e
 8002488:	0800321d 	.word	0x0800321d
 800248c:	2000008e 	.word	0x2000008e
 8002490:	20000090 	.word	0x20000090
 8002494:	20000092 	.word	0x20000092
 8002498:	20000094 	.word	0x20000094
 800249c:	20000098 	.word	0x20000098
 80024a0:	2000009a 	.word	0x2000009a
 80024a4:	2000009c 	.word	0x2000009c
 80024a8:	20000096 	.word	0x20000096
 80024ac:	080031fb 	.word	0x080031fb

080024b0 <HAL_UART_RxCpltCallback>:
}

void HAL_UART_RxCpltCallback(UART_HandleTypeDef *huart) {
  if (huart->Instance == USART1) {
 80024b0:	6802      	ldr	r2, [r0, #0]
 80024b2:	4b0c      	ldr	r3, [pc, #48]	; (80024e4 <HAL_UART_RxCpltCallback+0x34>)
 80024b4:	429a      	cmp	r2, r3
void HAL_UART_RxCpltCallback(UART_HandleTypeDef *huart) {
 80024b6:	b510      	push	{r4, lr}
  if (huart->Instance == USART1) {
 80024b8:	d112      	bne.n	80024e0 <HAL_UART_RxCpltCallback+0x30>
    write_debug("Data received: %c\r\n", bluetooth_command);
 80024ba:	4c0b      	ldr	r4, [pc, #44]	; (80024e8 <HAL_UART_RxCpltCallback+0x38>)
 80024bc:	480b      	ldr	r0, [pc, #44]	; (80024ec <HAL_UART_RxCpltCallback+0x3c>)
 80024be:	7821      	ldrb	r1, [r4, #0]
 80024c0:	f7ff fe40 	bl	8002144 <write_debug>
    HAL_UART_Transmit(&huart1, (uint8_t*) "Ahojky\r\n", 8, 1000);
 80024c4:	2208      	movs	r2, #8
 80024c6:	490a      	ldr	r1, [pc, #40]	; (80024f0 <HAL_UART_RxCpltCallback+0x40>)
 80024c8:	480a      	ldr	r0, [pc, #40]	; (80024f4 <HAL_UART_RxCpltCallback+0x44>)
 80024ca:	f44f 737a 	mov.w	r3, #1000	; 0x3e8
 80024ce:	f7ff fc81 	bl	8001dd4 <HAL_UART_Transmit>
    HAL_UART_Receive_IT(&huart1, &bluetooth_command, 1);
 80024d2:	4621      	mov	r1, r4
 80024d4:	2201      	movs	r2, #1
 80024d6:	4807      	ldr	r0, [pc, #28]	; (80024f4 <HAL_UART_RxCpltCallback+0x44>)
  }
}
 80024d8:	e8bd 4010 	ldmia.w	sp!, {r4, lr}
    HAL_UART_Receive_IT(&huart1, &bluetooth_command, 1);
 80024dc:	f7ff bcd7 	b.w	8001e8e <HAL_UART_Receive_IT>
 80024e0:	bd10      	pop	{r4, pc}
 80024e2:	bf00      	nop
 80024e4:	40011000 	.word	0x40011000
 80024e8:	2000008c 	.word	0x2000008c
 80024ec:	080031de 	.word	0x080031de
 80024f0:	080031f2 	.word	0x080031f2
 80024f4:	20000104 	.word	0x20000104

080024f8 <assert_failed>:
  * @param  file: pointer to the source file name
  * @param  line: assert_param error line source number
  * @retval None
  */
void assert_failed(uint8_t* file, uint32_t line)
{ 
 80024f8:	4770      	bx	lr
	...

080024fc <HAL_MspInit>:
/* USER CODE END 0 */
/**
  * Initializes the Global MSP.
  */
void HAL_MspInit(void)
{
 80024fc:	b513      	push	{r0, r1, r4, lr}
  /* USER CODE BEGIN MspInit 0 */

  /* USER CODE END MspInit 0 */

  __HAL_RCC_SYSCFG_CLK_ENABLE();
 80024fe:	4b22      	ldr	r3, [pc, #136]	; (8002588 <HAL_MspInit+0x8c>)
 8002500:	2400      	movs	r4, #0
 8002502:	9400      	str	r4, [sp, #0]
 8002504:	6c5a      	ldr	r2, [r3, #68]	; 0x44
 8002506:	f442 4280 	orr.w	r2, r2, #16384	; 0x4000
 800250a:	645a      	str	r2, [r3, #68]	; 0x44
 800250c:	6c5a      	ldr	r2, [r3, #68]	; 0x44
 800250e:	f402 4280 	and.w	r2, r2, #16384	; 0x4000
 8002512:	9200      	str	r2, [sp, #0]
 8002514:	9a00      	ldr	r2, [sp, #0]
  __HAL_RCC_PWR_CLK_ENABLE();
 8002516:	9401      	str	r4, [sp, #4]
 8002518:	6c1a      	ldr	r2, [r3, #64]	; 0x40
 800251a:	f042 5280 	orr.w	r2, r2, #268435456	; 0x10000000
 800251e:	641a      	str	r2, [r3, #64]	; 0x40
 8002520:	6c1b      	ldr	r3, [r3, #64]	; 0x40
 8002522:	f003 5380 	and.w	r3, r3, #268435456	; 0x10000000
 8002526:	9301      	str	r3, [sp, #4]

  HAL_NVIC_SetPriorityGrouping(NVIC_PRIORITYGROUP_0);
 8002528:	2007      	movs	r0, #7
  __HAL_RCC_PWR_CLK_ENABLE();
 800252a:	9b01      	ldr	r3, [sp, #4]
  HAL_NVIC_SetPriorityGrouping(NVIC_PRIORITYGROUP_0);
 800252c:	f7fe f8ac 	bl	8000688 <HAL_NVIC_SetPriorityGrouping>

  /* System interrupt init*/
  /* MemoryManagement_IRQn interrupt configuration */
  HAL_NVIC_SetPriority(MemoryManagement_IRQn, 0, 0);
 8002530:	4622      	mov	r2, r4
 8002532:	4621      	mov	r1, r4
 8002534:	f06f 000b 	mvn.w	r0, #11
 8002538:	f7fe f8c4 	bl	80006c4 <HAL_NVIC_SetPriority>
  /* BusFault_IRQn interrupt configuration */
  HAL_NVIC_SetPriority(BusFault_IRQn, 0, 0);
 800253c:	4622      	mov	r2, r4
 800253e:	4621      	mov	r1, r4
 8002540:	f06f 000a 	mvn.w	r0, #10
 8002544:	f7fe f8be 	bl	80006c4 <HAL_NVIC_SetPriority>
  /* UsageFault_IRQn interrupt configuration */
  HAL_NVIC_SetPriority(UsageFault_IRQn, 0, 0);
 8002548:	4622      	mov	r2, r4
 800254a:	4621      	mov	r1, r4
 800254c:	f06f 0009 	mvn.w	r0, #9
 8002550:	f7fe f8b8 	bl	80006c4 <HAL_NVIC_SetPriority>
  /* SVCall_IRQn interrupt configuration */
  HAL_NVIC_SetPriority(SVCall_IRQn, 0, 0);
 8002554:	4622      	mov	r2, r4
 8002556:	4621      	mov	r1, r4
 8002558:	f06f 0004 	mvn.w	r0, #4
 800255c:	f7fe f8b2 	bl	80006c4 <HAL_NVIC_SetPriority>
  /* DebugMonitor_IRQn interrupt configuration */
  HAL_NVIC_SetPriority(DebugMonitor_IRQn, 0, 0);
 8002560:	4622      	mov	r2, r4
 8002562:	4621      	mov	r1, r4
 8002564:	f06f 0003 	mvn.w	r0, #3
 8002568:	f7fe f8ac 	bl	80006c4 <HAL_NVIC_SetPriority>
  /* PendSV_IRQn interrupt configuration */
  HAL_NVIC_SetPriority(PendSV_IRQn, 0, 0);
 800256c:	4622      	mov	r2, r4
 800256e:	4621      	mov	r1, r4
 8002570:	f06f 0001 	mvn.w	r0, #1
 8002574:	f7fe f8a6 	bl	80006c4 <HAL_NVIC_SetPriority>
  /* SysTick_IRQn interrupt configuration */
  HAL_NVIC_SetPriority(SysTick_IRQn, 0, 0);
 8002578:	4622      	mov	r2, r4
 800257a:	4621      	mov	r1, r4
 800257c:	f04f 30ff 	mov.w	r0, #4294967295	; 0xffffffff
 8002580:	f7fe f8a0 	bl	80006c4 <HAL_NVIC_SetPriority>

  /* USER CODE BEGIN MspInit 1 */

  /* USER CODE END MspInit 1 */
}
 8002584:	b002      	add	sp, #8
 8002586:	bd10      	pop	{r4, pc}
 8002588:	40023800 	.word	0x40023800

0800258c <HAL_I2C_MspInit>:

void HAL_I2C_MspInit(I2C_HandleTypeDef* hi2c)
{
 800258c:	b57f      	push	{r0, r1, r2, r3, r4, r5, r6, lr}

  GPIO_InitTypeDef GPIO_InitStruct;
  if(hi2c->Instance==I2C1)
 800258e:	6802      	ldr	r2, [r0, #0]
 8002590:	4b10      	ldr	r3, [pc, #64]	; (80025d4 <HAL_I2C_MspInit+0x48>)
 8002592:	429a      	cmp	r2, r3
 8002594:	d11b      	bne.n	80025ce <HAL_I2C_MspInit+0x42>
  
    /**I2C1 GPIO Configuration    
    PB8     ------> I2C1_SCL
    PB9     ------> I2C1_SDA 
    */
    GPIO_InitStruct.Pin = GPIO_PIN_8|GPIO_PIN_9;
 8002596:	f44f 7340 	mov.w	r3, #768	; 0x300
 800259a:	9301      	str	r3, [sp, #4]
    GPIO_InitStruct.Mode = GPIO_MODE_AF_OD;
 800259c:	2312      	movs	r3, #18
 800259e:	9302      	str	r3, [sp, #8]
    GPIO_InitStruct.Pull = GPIO_PULLUP;
 80025a0:	2301      	movs	r3, #1
 80025a2:	9303      	str	r3, [sp, #12]
    GPIO_InitStruct.Speed = GPIO_SPEED_FREQ_VERY_HIGH;
 80025a4:	2303      	movs	r3, #3
 80025a6:	9304      	str	r3, [sp, #16]
    GPIO_InitStruct.Alternate = GPIO_AF4_I2C1;
 80025a8:	2304      	movs	r3, #4
    HAL_GPIO_Init(GPIOB, &GPIO_InitStruct);
 80025aa:	eb0d 0103 	add.w	r1, sp, r3
 80025ae:	480a      	ldr	r0, [pc, #40]	; (80025d8 <HAL_I2C_MspInit+0x4c>)
    GPIO_InitStruct.Alternate = GPIO_AF4_I2C1;
 80025b0:	9305      	str	r3, [sp, #20]
    HAL_GPIO_Init(GPIOB, &GPIO_InitStruct);
 80025b2:	f7fe f925 	bl	8000800 <HAL_GPIO_Init>

    /* Peripheral clock enable */
    __HAL_RCC_I2C1_CLK_ENABLE();
 80025b6:	2300      	movs	r3, #0
 80025b8:	9300      	str	r3, [sp, #0]
 80025ba:	4b08      	ldr	r3, [pc, #32]	; (80025dc <HAL_I2C_MspInit+0x50>)
 80025bc:	6c1a      	ldr	r2, [r3, #64]	; 0x40
 80025be:	f442 1200 	orr.w	r2, r2, #2097152	; 0x200000
 80025c2:	641a      	str	r2, [r3, #64]	; 0x40
 80025c4:	6c1b      	ldr	r3, [r3, #64]	; 0x40
 80025c6:	f403 1300 	and.w	r3, r3, #2097152	; 0x200000
 80025ca:	9300      	str	r3, [sp, #0]
 80025cc:	9b00      	ldr	r3, [sp, #0]
  /* USER CODE BEGIN I2C1_MspInit 1 */

  /* USER CODE END I2C1_MspInit 1 */
  }

}
 80025ce:	b007      	add	sp, #28
 80025d0:	f85d fb04 	ldr.w	pc, [sp], #4
 80025d4:	40005400 	.word	0x40005400
 80025d8:	40020400 	.word	0x40020400
 80025dc:	40023800 	.word	0x40023800

080025e0 <HAL_UART_MspInit>:
  }

}

void HAL_UART_MspInit(UART_HandleTypeDef* huart)
{
 80025e0:	b5f0      	push	{r4, r5, r6, r7, lr}

  GPIO_InitTypeDef GPIO_InitStruct;
  if(huart->Instance==UART4)
 80025e2:	6803      	ldr	r3, [r0, #0]
 80025e4:	4a36      	ldr	r2, [pc, #216]	; (80026c0 <HAL_UART_MspInit+0xe0>)
 80025e6:	4293      	cmp	r3, r2
{
 80025e8:	b089      	sub	sp, #36	; 0x24
  if(huart->Instance==UART4)
 80025ea:	d124      	bne.n	8002636 <HAL_UART_MspInit+0x56>
  {
  /* USER CODE BEGIN UART4_MspInit 0 */

  /* USER CODE END UART4_MspInit 0 */
    /* Peripheral clock enable */
    __HAL_RCC_UART4_CLK_ENABLE();
 80025ec:	2300      	movs	r3, #0
 80025ee:	9300      	str	r3, [sp, #0]
 80025f0:	4b34      	ldr	r3, [pc, #208]	; (80026c4 <HAL_UART_MspInit+0xe4>)
    GPIO_InitStruct.Pin = GPIO_PIN_1;
    GPIO_InitStruct.Mode = GPIO_MODE_AF_PP;
    GPIO_InitStruct.Pull = GPIO_PULLUP;
    GPIO_InitStruct.Speed = GPIO_SPEED_FREQ_VERY_HIGH;
    GPIO_InitStruct.Alternate = GPIO_AF8_UART4;
    HAL_GPIO_Init(GPIOA, &GPIO_InitStruct);
 80025f2:	4835      	ldr	r0, [pc, #212]	; (80026c8 <HAL_UART_MspInit+0xe8>)
    __HAL_RCC_UART4_CLK_ENABLE();
 80025f4:	6c1a      	ldr	r2, [r3, #64]	; 0x40
 80025f6:	f442 2200 	orr.w	r2, r2, #524288	; 0x80000
 80025fa:	641a      	str	r2, [r3, #64]	; 0x40
 80025fc:	6c1b      	ldr	r3, [r3, #64]	; 0x40
 80025fe:	f403 2300 	and.w	r3, r3, #524288	; 0x80000
    GPIO_InitStruct.Pin = GPIO_PIN_1;
 8002602:	2402      	movs	r4, #2
    __HAL_RCC_UART4_CLK_ENABLE();
 8002604:	9300      	str	r3, [sp, #0]
    GPIO_InitStruct.Pull = GPIO_PULLUP;
 8002606:	2701      	movs	r7, #1
    GPIO_InitStruct.Speed = GPIO_SPEED_FREQ_VERY_HIGH;
 8002608:	2603      	movs	r6, #3
    GPIO_InitStruct.Alternate = GPIO_AF8_UART4;
 800260a:	2508      	movs	r5, #8
    HAL_GPIO_Init(GPIOA, &GPIO_InitStruct);
 800260c:	a903      	add	r1, sp, #12
    __HAL_RCC_UART4_CLK_ENABLE();
 800260e:	9b00      	ldr	r3, [sp, #0]
    GPIO_InitStruct.Pin = GPIO_PIN_1;
 8002610:	9403      	str	r4, [sp, #12]
    GPIO_InitStruct.Mode = GPIO_MODE_AF_PP;
 8002612:	9404      	str	r4, [sp, #16]
    GPIO_InitStruct.Pull = GPIO_PULLUP;
 8002614:	9705      	str	r7, [sp, #20]
    GPIO_InitStruct.Speed = GPIO_SPEED_FREQ_VERY_HIGH;
 8002616:	9606      	str	r6, [sp, #24]
    GPIO_InitStruct.Alternate = GPIO_AF8_UART4;
 8002618:	9507      	str	r5, [sp, #28]
    HAL_GPIO_Init(GPIOA, &GPIO_InitStruct);
 800261a:	f7fe f8f1 	bl	8000800 <HAL_GPIO_Init>

    GPIO_InitStruct.Pin = GPIO_PIN_10;
 800261e:	f44f 6380 	mov.w	r3, #1024	; 0x400
    GPIO_InitStruct.Mode = GPIO_MODE_AF_PP;
    GPIO_InitStruct.Pull = GPIO_PULLUP;
    GPIO_InitStruct.Speed = GPIO_SPEED_FREQ_VERY_HIGH;
    GPIO_InitStruct.Alternate = GPIO_AF8_UART4;
    HAL_GPIO_Init(GPIOC, &GPIO_InitStruct);
 8002622:	482a      	ldr	r0, [pc, #168]	; (80026cc <HAL_UART_MspInit+0xec>)
    GPIO_InitStruct.Pin = GPIO_PIN_10;
 8002624:	9303      	str	r3, [sp, #12]
    GPIO_InitStruct.Mode = GPIO_MODE_AF_PP;
 8002626:	9404      	str	r4, [sp, #16]
    GPIO_InitStruct.Pull = GPIO_PULLUP;
 8002628:	9705      	str	r7, [sp, #20]
    GPIO_InitStruct.Speed = GPIO_SPEED_FREQ_VERY_HIGH;
 800262a:	9606      	str	r6, [sp, #24]
    GPIO_InitStruct.Alternate = GPIO_AF8_UART4;
 800262c:	9507      	str	r5, [sp, #28]
    HAL_GPIO_Init(GPIOC, &GPIO_InitStruct);
 800262e:	a903      	add	r1, sp, #12
    GPIO_InitStruct.Pin = USART_TX_Pin|USART_RX_Pin;
    GPIO_InitStruct.Mode = GPIO_MODE_AF_PP;
    GPIO_InitStruct.Pull = GPIO_PULLUP;
    GPIO_InitStruct.Speed = GPIO_SPEED_FREQ_VERY_HIGH;
    GPIO_InitStruct.Alternate = GPIO_AF7_USART2;
    HAL_GPIO_Init(GPIOA, &GPIO_InitStruct);
 8002630:	f7fe f8e6 	bl	8000800 <HAL_GPIO_Init>
  /* USER CODE BEGIN USART2_MspInit 1 */

  /* USER CODE END USART2_MspInit 1 */
  }

}
 8002634:	e025      	b.n	8002682 <HAL_UART_MspInit+0xa2>
  else if(huart->Instance==USART1)
 8002636:	4a26      	ldr	r2, [pc, #152]	; (80026d0 <HAL_UART_MspInit+0xf0>)
 8002638:	4293      	cmp	r3, r2
 800263a:	d124      	bne.n	8002686 <HAL_UART_MspInit+0xa6>
    __HAL_RCC_USART1_CLK_ENABLE();
 800263c:	2400      	movs	r4, #0
 800263e:	4b21      	ldr	r3, [pc, #132]	; (80026c4 <HAL_UART_MspInit+0xe4>)
 8002640:	9401      	str	r4, [sp, #4]
 8002642:	6c59      	ldr	r1, [r3, #68]	; 0x44
    HAL_GPIO_Init(GPIOA, &GPIO_InitStruct);
 8002644:	4820      	ldr	r0, [pc, #128]	; (80026c8 <HAL_UART_MspInit+0xe8>)
    __HAL_RCC_USART1_CLK_ENABLE();
 8002646:	f041 0110 	orr.w	r1, r1, #16
 800264a:	6459      	str	r1, [r3, #68]	; 0x44
 800264c:	6c5b      	ldr	r3, [r3, #68]	; 0x44
 800264e:	f003 0310 	and.w	r3, r3, #16
 8002652:	9301      	str	r3, [sp, #4]
 8002654:	9b01      	ldr	r3, [sp, #4]
    GPIO_InitStruct.Pin = GPIO_PIN_9|GPIO_PIN_10;
 8002656:	f44f 63c0 	mov.w	r3, #1536	; 0x600
 800265a:	9303      	str	r3, [sp, #12]
    GPIO_InitStruct.Mode = GPIO_MODE_AF_PP;
 800265c:	2302      	movs	r3, #2
 800265e:	9304      	str	r3, [sp, #16]
    GPIO_InitStruct.Pull = GPIO_PULLUP;
 8002660:	2301      	movs	r3, #1
 8002662:	9305      	str	r3, [sp, #20]
    GPIO_InitStruct.Speed = GPIO_SPEED_FREQ_VERY_HIGH;
 8002664:	2303      	movs	r3, #3
 8002666:	9306      	str	r3, [sp, #24]
    HAL_GPIO_Init(GPIOA, &GPIO_InitStruct);
 8002668:	a903      	add	r1, sp, #12
    GPIO_InitStruct.Alternate = GPIO_AF7_USART1;
 800266a:	2307      	movs	r3, #7
 800266c:	9307      	str	r3, [sp, #28]
    HAL_GPIO_Init(GPIOA, &GPIO_InitStruct);
 800266e:	f7fe f8c7 	bl	8000800 <HAL_GPIO_Init>
    HAL_NVIC_SetPriority(USART1_IRQn, 0, 0);
 8002672:	2025      	movs	r0, #37	; 0x25
 8002674:	4622      	mov	r2, r4
 8002676:	4621      	mov	r1, r4
 8002678:	f7fe f824 	bl	80006c4 <HAL_NVIC_SetPriority>
    HAL_NVIC_EnableIRQ(USART1_IRQn);
 800267c:	2025      	movs	r0, #37	; 0x25
 800267e:	f7fe f863 	bl	8000748 <HAL_NVIC_EnableIRQ>
}
 8002682:	b009      	add	sp, #36	; 0x24
 8002684:	bdf0      	pop	{r4, r5, r6, r7, pc}
  else if(huart->Instance==USART2)
 8002686:	4a13      	ldr	r2, [pc, #76]	; (80026d4 <HAL_UART_MspInit+0xf4>)
 8002688:	4293      	cmp	r3, r2
 800268a:	d1fa      	bne.n	8002682 <HAL_UART_MspInit+0xa2>
    __HAL_RCC_USART2_CLK_ENABLE();
 800268c:	2300      	movs	r3, #0
 800268e:	9302      	str	r3, [sp, #8]
 8002690:	4b0c      	ldr	r3, [pc, #48]	; (80026c4 <HAL_UART_MspInit+0xe4>)
    HAL_GPIO_Init(GPIOA, &GPIO_InitStruct);
 8002692:	480d      	ldr	r0, [pc, #52]	; (80026c8 <HAL_UART_MspInit+0xe8>)
    __HAL_RCC_USART2_CLK_ENABLE();
 8002694:	6c1a      	ldr	r2, [r3, #64]	; 0x40
 8002696:	f442 3200 	orr.w	r2, r2, #131072	; 0x20000
 800269a:	641a      	str	r2, [r3, #64]	; 0x40
 800269c:	6c1b      	ldr	r3, [r3, #64]	; 0x40
 800269e:	f403 3300 	and.w	r3, r3, #131072	; 0x20000
 80026a2:	9302      	str	r3, [sp, #8]
 80026a4:	9b02      	ldr	r3, [sp, #8]
    GPIO_InitStruct.Pin = USART_TX_Pin|USART_RX_Pin;
 80026a6:	230c      	movs	r3, #12
 80026a8:	9303      	str	r3, [sp, #12]
    GPIO_InitStruct.Mode = GPIO_MODE_AF_PP;
 80026aa:	2302      	movs	r3, #2
 80026ac:	9304      	str	r3, [sp, #16]
    GPIO_InitStruct.Pull = GPIO_PULLUP;
 80026ae:	2301      	movs	r3, #1
 80026b0:	9305      	str	r3, [sp, #20]
    GPIO_InitStruct.Speed = GPIO_SPEED_FREQ_VERY_HIGH;
 80026b2:	2303      	movs	r3, #3
 80026b4:	9306      	str	r3, [sp, #24]
    GPIO_InitStruct.Alternate = GPIO_AF7_USART2;
 80026b6:	2307      	movs	r3, #7
 80026b8:	9307      	str	r3, [sp, #28]
    HAL_GPIO_Init(GPIOA, &GPIO_InitStruct);
 80026ba:	a903      	add	r1, sp, #12
 80026bc:	e7b8      	b.n	8002630 <HAL_UART_MspInit+0x50>
 80026be:	bf00      	nop
 80026c0:	40004c00 	.word	0x40004c00
 80026c4:	40023800 	.word	0x40023800
 80026c8:	40020000 	.word	0x40020000
 80026cc:	40020800 	.word	0x40020800
 80026d0:	40011000 	.word	0x40011000
 80026d4:	40004400 	.word	0x40004400

080026d8 <NMI_Handler>:
 80026d8:	4770      	bx	lr

080026da <HardFault_Handler>:

/**
* @brief This function handles Hard fault interrupt.
*/
void HardFault_Handler(void)
{
 80026da:	e7fe      	b.n	80026da <HardFault_Handler>

080026dc <MemManage_Handler>:

/**
* @brief This function handles Memory management fault.
*/
void MemManage_Handler(void)
{
 80026dc:	e7fe      	b.n	80026dc <MemManage_Handler>

080026de <BusFault_Handler>:

/**
* @brief This function handles Pre-fetch fault, memory access fault.
*/
void BusFault_Handler(void)
{
 80026de:	e7fe      	b.n	80026de <BusFault_Handler>

080026e0 <UsageFault_Handler>:

/**
* @brief This function handles Undefined instruction or illegal state.
*/
void UsageFault_Handler(void)
{
 80026e0:	e7fe      	b.n	80026e0 <UsageFault_Handler>

080026e2 <SVC_Handler>:
 80026e2:	4770      	bx	lr

080026e4 <DebugMon_Handler>:
 80026e4:	4770      	bx	lr

080026e6 <PendSV_Handler>:

/**
* @brief This function handles Pendable request for system service.
*/
void PendSV_Handler(void)
{
 80026e6:	4770      	bx	lr

080026e8 <SysTick_Handler>:

/**
* @brief This function handles System tick timer.
*/
void SysTick_Handler(void)
{
 80026e8:	b508      	push	{r3, lr}
  /* USER CODE BEGIN SysTick_IRQn 0 */

  /* USER CODE END SysTick_IRQn 0 */
  HAL_IncTick();
 80026ea:	f7fd ffa7 	bl	800063c <HAL_IncTick>
  HAL_SYSTICK_IRQHandler();
  /* USER CODE BEGIN SysTick_IRQn 1 */

  /* USER CODE END SysTick_IRQn 1 */
}
 80026ee:	e8bd 4008 	ldmia.w	sp!, {r3, lr}
  HAL_SYSTICK_IRQHandler();
 80026f2:	f7fe b86e 	b.w	80007d2 <HAL_SYSTICK_IRQHandler>
	...

080026f8 <USART1_IRQHandler>:
void USART1_IRQHandler(void)
{
  /* USER CODE BEGIN USART1_IRQn 0 */

  /* USER CODE END USART1_IRQn 0 */
  HAL_UART_IRQHandler(&huart1);
 80026f8:	4801      	ldr	r0, [pc, #4]	; (8002700 <USART1_IRQHandler+0x8>)
 80026fa:	f7ff bc27 	b.w	8001f4c <HAL_UART_IRQHandler>
 80026fe:	bf00      	nop
 8002700:	20000104 	.word	0x20000104

08002704 <_sbrk>:
{
	extern char   end; /* Set by linker.  */
	static char * heap_end;
	char *        prev_heap_end;

	if (heap_end == 0) {
 8002704:	4b04      	ldr	r3, [pc, #16]	; (8002718 <_sbrk+0x14>)
 8002706:	6819      	ldr	r1, [r3, #0]
{
 8002708:	4602      	mov	r2, r0
	if (heap_end == 0) {
 800270a:	b909      	cbnz	r1, 8002710 <_sbrk+0xc>
		heap_end = & end;
 800270c:	4903      	ldr	r1, [pc, #12]	; (800271c <_sbrk+0x18>)
 800270e:	6019      	str	r1, [r3, #0]
	}

	prev_heap_end = heap_end;
 8002710:	6818      	ldr	r0, [r3, #0]
	heap_end += incr;
 8002712:	4402      	add	r2, r0
 8002714:	601a      	str	r2, [r3, #0]

	return (void *) prev_heap_end;
}
 8002716:	4770      	bx	lr
 8002718:	200000a0 	.word	0x200000a0
 800271c:	200001c8 	.word	0x200001c8

08002720 <SystemInit>:
  */
void SystemInit(void)
{
  /* FPU settings ------------------------------------------------------------*/
  #if (__FPU_PRESENT == 1) && (__FPU_USED == 1)
    SCB->CPACR |= ((3UL << 10*2)|(3UL << 11*2));  /* set CP10 and CP11 Full Access */
 8002720:	490f      	ldr	r1, [pc, #60]	; (8002760 <SystemInit+0x40>)
 8002722:	f8d1 3088 	ldr.w	r3, [r1, #136]	; 0x88
 8002726:	f443 0370 	orr.w	r3, r3, #15728640	; 0xf00000
 800272a:	f8c1 3088 	str.w	r3, [r1, #136]	; 0x88
  #endif
  /* Reset the RCC clock configuration to the default reset state ------------*/
  /* Set HSION bit */
  RCC->CR |= (uint32_t)0x00000001;
 800272e:	4b0d      	ldr	r3, [pc, #52]	; (8002764 <SystemInit+0x44>)
 8002730:	681a      	ldr	r2, [r3, #0]

  /* Reset CFGR register */
  RCC->CFGR = 0x00000000;
 8002732:	2000      	movs	r0, #0
  RCC->CR |= (uint32_t)0x00000001;
 8002734:	f042 0201 	orr.w	r2, r2, #1
 8002738:	601a      	str	r2, [r3, #0]
  RCC->CFGR = 0x00000000;
 800273a:	6098      	str	r0, [r3, #8]

  /* Reset HSEON, CSSON and PLLON bits */
  RCC->CR &= (uint32_t)0xFEF6FFFF;
 800273c:	681a      	ldr	r2, [r3, #0]
 800273e:	f022 7284 	bic.w	r2, r2, #17301504	; 0x1080000
 8002742:	f422 3280 	bic.w	r2, r2, #65536	; 0x10000
 8002746:	601a      	str	r2, [r3, #0]

  /* Reset PLLCFGR register */
  RCC->PLLCFGR = 0x24003010;
 8002748:	4a07      	ldr	r2, [pc, #28]	; (8002768 <SystemInit+0x48>)
 800274a:	605a      	str	r2, [r3, #4]

  /* Reset HSEBYP bit */
  RCC->CR &= (uint32_t)0xFFFBFFFF;
 800274c:	681a      	ldr	r2, [r3, #0]
 800274e:	f422 2280 	bic.w	r2, r2, #262144	; 0x40000
 8002752:	601a      	str	r2, [r3, #0]

  /* Disable all interrupts */
  RCC->CIR = 0x00000000;
 8002754:	60d8      	str	r0, [r3, #12]

  /* Configure the Vector Table location add offset address ------------------*/
#ifdef VECT_TAB_SRAM
  SCB->VTOR = SRAM_BASE | VECT_TAB_OFFSET; /* Vector Table Relocation in Internal SRAM */
#else
  SCB->VTOR = FLASH_BASE | VECT_TAB_OFFSET; /* Vector Table Relocation in Internal FLASH */
 8002756:	f04f 6300 	mov.w	r3, #134217728	; 0x8000000
 800275a:	608b      	str	r3, [r1, #8]
 800275c:	4770      	bx	lr
 800275e:	bf00      	nop
 8002760:	e000ed00 	.word	0xe000ed00
 8002764:	40023800 	.word	0x40023800
 8002768:	24003010 	.word	0x24003010

0800276c <Reset_Handler>:

    .section  .text.Reset_Handler
  .weak  Reset_Handler
  .type  Reset_Handler, %function
Reset_Handler:  
  ldr   sp, =_estack      /* set stack pointer */
 800276c:	f8df d034 	ldr.w	sp, [pc, #52]	; 80027a4 <LoopFillZerobss+0x14>

/* Copy the data segment initializers from flash to SRAM */  
  movs  r1, #0
 8002770:	2100      	movs	r1, #0
  b  LoopCopyDataInit
 8002772:	e003      	b.n	800277c <LoopCopyDataInit>

08002774 <CopyDataInit>:

CopyDataInit:
  ldr  r3, =_sidata
 8002774:	4b0c      	ldr	r3, [pc, #48]	; (80027a8 <LoopFillZerobss+0x18>)
  ldr  r3, [r3, r1]
 8002776:	585b      	ldr	r3, [r3, r1]
  str  r3, [r0, r1]
 8002778:	5043      	str	r3, [r0, r1]
  adds  r1, r1, #4
 800277a:	3104      	adds	r1, #4

0800277c <LoopCopyDataInit>:
    
LoopCopyDataInit:
  ldr  r0, =_sdata
 800277c:	480b      	ldr	r0, [pc, #44]	; (80027ac <LoopFillZerobss+0x1c>)
  ldr  r3, =_edata
 800277e:	4b0c      	ldr	r3, [pc, #48]	; (80027b0 <LoopFillZerobss+0x20>)
  adds  r2, r0, r1
 8002780:	1842      	adds	r2, r0, r1
  cmp  r2, r3
 8002782:	429a      	cmp	r2, r3
  bcc  CopyDataInit
 8002784:	d3f6      	bcc.n	8002774 <CopyDataInit>
  ldr  r2, =_sbss
 8002786:	4a0b      	ldr	r2, [pc, #44]	; (80027b4 <LoopFillZerobss+0x24>)
  b  LoopFillZerobss
 8002788:	e002      	b.n	8002790 <LoopFillZerobss>

0800278a <FillZerobss>:
/* Zero fill the bss segment. */  
FillZerobss:
  movs  r3, #0
 800278a:	2300      	movs	r3, #0
  str  r3, [r2], #4
 800278c:	f842 3b04 	str.w	r3, [r2], #4

08002790 <LoopFillZerobss>:
    
LoopFillZerobss:
  ldr  r3, = _ebss
 8002790:	4b09      	ldr	r3, [pc, #36]	; (80027b8 <LoopFillZerobss+0x28>)
  cmp  r2, r3
 8002792:	429a      	cmp	r2, r3
  bcc  FillZerobss
 8002794:	d3f9      	bcc.n	800278a <FillZerobss>

/* Call the clock system intitialization function.*/
  bl  SystemInit   
 8002796:	f7ff ffc3 	bl	8002720 <SystemInit>
/* Call static constructors */
    bl __libc_init_array
 800279a:	f000 f811 	bl	80027c0 <__libc_init_array>
/* Call the application's entry point.*/
  bl  main
 800279e:	f7ff fd51 	bl	8002244 <main>
  bx  lr    
 80027a2:	4770      	bx	lr
  ldr   sp, =_estack      /* set stack pointer */
 80027a4:	20020000 	.word	0x20020000
  ldr  r3, =_sidata
 80027a8:	0800328c 	.word	0x0800328c
  ldr  r0, =_sdata
 80027ac:	20000000 	.word	0x20000000
  ldr  r3, =_edata
 80027b0:	20000070 	.word	0x20000070
  ldr  r2, =_sbss
 80027b4:	20000070 	.word	0x20000070
  ldr  r3, = _ebss
 80027b8:	200001c8 	.word	0x200001c8

080027bc <ADC_IRQHandler>:
 * @retval None       
*/
    .section  .text.Default_Handler,"ax",%progbits
Default_Handler:
Infinite_Loop:
  b  Infinite_Loop
 80027bc:	e7fe      	b.n	80027bc <ADC_IRQHandler>
	...

080027c0 <__libc_init_array>:
 80027c0:	b570      	push	{r4, r5, r6, lr}
 80027c2:	4e0d      	ldr	r6, [pc, #52]	; (80027f8 <__libc_init_array+0x38>)
 80027c4:	4c0d      	ldr	r4, [pc, #52]	; (80027fc <__libc_init_array+0x3c>)
 80027c6:	1ba4      	subs	r4, r4, r6
 80027c8:	10a4      	asrs	r4, r4, #2
 80027ca:	2500      	movs	r5, #0
 80027cc:	42a5      	cmp	r5, r4
 80027ce:	d109      	bne.n	80027e4 <__libc_init_array+0x24>
 80027d0:	4e0b      	ldr	r6, [pc, #44]	; (8002800 <__libc_init_array+0x40>)
 80027d2:	4c0c      	ldr	r4, [pc, #48]	; (8002804 <__libc_init_array+0x44>)
 80027d4:	f000 fc4a 	bl	800306c <_init>
 80027d8:	1ba4      	subs	r4, r4, r6
 80027da:	10a4      	asrs	r4, r4, #2
 80027dc:	2500      	movs	r5, #0
 80027de:	42a5      	cmp	r5, r4
 80027e0:	d105      	bne.n	80027ee <__libc_init_array+0x2e>
 80027e2:	bd70      	pop	{r4, r5, r6, pc}
 80027e4:	f856 3025 	ldr.w	r3, [r6, r5, lsl #2]
 80027e8:	4798      	blx	r3
 80027ea:	3501      	adds	r5, #1
 80027ec:	e7ee      	b.n	80027cc <__libc_init_array+0xc>
 80027ee:	f856 3025 	ldr.w	r3, [r6, r5, lsl #2]
 80027f2:	4798      	blx	r3
 80027f4:	3501      	adds	r5, #1
 80027f6:	e7f2      	b.n	80027de <__libc_init_array+0x1e>
 80027f8:	08003284 	.word	0x08003284
 80027fc:	08003284 	.word	0x08003284
 8002800:	08003284 	.word	0x08003284
 8002804:	08003288 	.word	0x08003288

08002808 <_vsniprintf_r>:
 8002808:	b530      	push	{r4, r5, lr}
 800280a:	1e14      	subs	r4, r2, #0
 800280c:	4605      	mov	r5, r0
 800280e:	b09b      	sub	sp, #108	; 0x6c
 8002810:	4618      	mov	r0, r3
 8002812:	da05      	bge.n	8002820 <_vsniprintf_r+0x18>
 8002814:	238b      	movs	r3, #139	; 0x8b
 8002816:	602b      	str	r3, [r5, #0]
 8002818:	f04f 30ff 	mov.w	r0, #4294967295	; 0xffffffff
 800281c:	b01b      	add	sp, #108	; 0x6c
 800281e:	bd30      	pop	{r4, r5, pc}
 8002820:	f44f 7302 	mov.w	r3, #520	; 0x208
 8002824:	f8ad 300c 	strh.w	r3, [sp, #12]
 8002828:	bf14      	ite	ne
 800282a:	f104 33ff 	addne.w	r3, r4, #4294967295	; 0xffffffff
 800282e:	4623      	moveq	r3, r4
 8002830:	9302      	str	r3, [sp, #8]
 8002832:	9305      	str	r3, [sp, #20]
 8002834:	f64f 73ff 	movw	r3, #65535	; 0xffff
 8002838:	9100      	str	r1, [sp, #0]
 800283a:	9104      	str	r1, [sp, #16]
 800283c:	f8ad 300e 	strh.w	r3, [sp, #14]
 8002840:	4602      	mov	r2, r0
 8002842:	9b1e      	ldr	r3, [sp, #120]	; 0x78
 8002844:	4669      	mov	r1, sp
 8002846:	4628      	mov	r0, r5
 8002848:	f000 f920 	bl	8002a8c <_svfiprintf_r>
 800284c:	1c43      	adds	r3, r0, #1
 800284e:	bfbc      	itt	lt
 8002850:	238b      	movlt	r3, #139	; 0x8b
 8002852:	602b      	strlt	r3, [r5, #0]
 8002854:	2c00      	cmp	r4, #0
 8002856:	d0e1      	beq.n	800281c <_vsniprintf_r+0x14>
 8002858:	9b00      	ldr	r3, [sp, #0]
 800285a:	2200      	movs	r2, #0
 800285c:	701a      	strb	r2, [r3, #0]
 800285e:	e7dd      	b.n	800281c <_vsniprintf_r+0x14>

08002860 <vsniprintf>:
 8002860:	b507      	push	{r0, r1, r2, lr}
 8002862:	9300      	str	r3, [sp, #0]
 8002864:	4613      	mov	r3, r2
 8002866:	460a      	mov	r2, r1
 8002868:	4601      	mov	r1, r0
 800286a:	4803      	ldr	r0, [pc, #12]	; (8002878 <vsniprintf+0x18>)
 800286c:	6800      	ldr	r0, [r0, #0]
 800286e:	f7ff ffcb 	bl	8002808 <_vsniprintf_r>
 8002872:	b003      	add	sp, #12
 8002874:	f85d fb04 	ldr.w	pc, [sp], #4
 8002878:	2000000c 	.word	0x2000000c

0800287c <_free_r>:
 800287c:	b538      	push	{r3, r4, r5, lr}
 800287e:	4605      	mov	r5, r0
 8002880:	2900      	cmp	r1, #0
 8002882:	d045      	beq.n	8002910 <_free_r+0x94>
 8002884:	f851 3c04 	ldr.w	r3, [r1, #-4]
 8002888:	1f0c      	subs	r4, r1, #4
 800288a:	2b00      	cmp	r3, #0
 800288c:	bfb8      	it	lt
 800288e:	18e4      	addlt	r4, r4, r3
 8002890:	f000 fbbb 	bl	800300a <__malloc_lock>
 8002894:	4a1f      	ldr	r2, [pc, #124]	; (8002914 <_free_r+0x98>)
 8002896:	6813      	ldr	r3, [r2, #0]
 8002898:	4610      	mov	r0, r2
 800289a:	b933      	cbnz	r3, 80028aa <_free_r+0x2e>
 800289c:	6063      	str	r3, [r4, #4]
 800289e:	6014      	str	r4, [r2, #0]
 80028a0:	4628      	mov	r0, r5
 80028a2:	e8bd 4038 	ldmia.w	sp!, {r3, r4, r5, lr}
 80028a6:	f000 bbb1 	b.w	800300c <__malloc_unlock>
 80028aa:	42a3      	cmp	r3, r4
 80028ac:	d90c      	bls.n	80028c8 <_free_r+0x4c>
 80028ae:	6821      	ldr	r1, [r4, #0]
 80028b0:	1862      	adds	r2, r4, r1
 80028b2:	4293      	cmp	r3, r2
 80028b4:	bf04      	itt	eq
 80028b6:	681a      	ldreq	r2, [r3, #0]
 80028b8:	685b      	ldreq	r3, [r3, #4]
 80028ba:	6063      	str	r3, [r4, #4]
 80028bc:	bf04      	itt	eq
 80028be:	1852      	addeq	r2, r2, r1
 80028c0:	6022      	streq	r2, [r4, #0]
 80028c2:	6004      	str	r4, [r0, #0]
 80028c4:	e7ec      	b.n	80028a0 <_free_r+0x24>
 80028c6:	4613      	mov	r3, r2
 80028c8:	685a      	ldr	r2, [r3, #4]
 80028ca:	b10a      	cbz	r2, 80028d0 <_free_r+0x54>
 80028cc:	42a2      	cmp	r2, r4
 80028ce:	d9fa      	bls.n	80028c6 <_free_r+0x4a>
 80028d0:	6819      	ldr	r1, [r3, #0]
 80028d2:	1858      	adds	r0, r3, r1
 80028d4:	42a0      	cmp	r0, r4
 80028d6:	d10b      	bne.n	80028f0 <_free_r+0x74>
 80028d8:	6820      	ldr	r0, [r4, #0]
 80028da:	4401      	add	r1, r0
 80028dc:	1858      	adds	r0, r3, r1
 80028de:	4282      	cmp	r2, r0
 80028e0:	6019      	str	r1, [r3, #0]
 80028e2:	d1dd      	bne.n	80028a0 <_free_r+0x24>
 80028e4:	6810      	ldr	r0, [r2, #0]
 80028e6:	6852      	ldr	r2, [r2, #4]
 80028e8:	605a      	str	r2, [r3, #4]
 80028ea:	4401      	add	r1, r0
 80028ec:	6019      	str	r1, [r3, #0]
 80028ee:	e7d7      	b.n	80028a0 <_free_r+0x24>
 80028f0:	d902      	bls.n	80028f8 <_free_r+0x7c>
 80028f2:	230c      	movs	r3, #12
 80028f4:	602b      	str	r3, [r5, #0]
 80028f6:	e7d3      	b.n	80028a0 <_free_r+0x24>
 80028f8:	6820      	ldr	r0, [r4, #0]
 80028fa:	1821      	adds	r1, r4, r0
 80028fc:	428a      	cmp	r2, r1
 80028fe:	bf04      	itt	eq
 8002900:	6811      	ldreq	r1, [r2, #0]
 8002902:	6852      	ldreq	r2, [r2, #4]
 8002904:	6062      	str	r2, [r4, #4]
 8002906:	bf04      	itt	eq
 8002908:	1809      	addeq	r1, r1, r0
 800290a:	6021      	streq	r1, [r4, #0]
 800290c:	605c      	str	r4, [r3, #4]
 800290e:	e7c7      	b.n	80028a0 <_free_r+0x24>
 8002910:	bd38      	pop	{r3, r4, r5, pc}
 8002912:	bf00      	nop
 8002914:	200000a4 	.word	0x200000a4

08002918 <_malloc_r>:
 8002918:	b570      	push	{r4, r5, r6, lr}
 800291a:	1ccd      	adds	r5, r1, #3
 800291c:	f025 0503 	bic.w	r5, r5, #3
 8002920:	3508      	adds	r5, #8
 8002922:	2d0c      	cmp	r5, #12
 8002924:	bf38      	it	cc
 8002926:	250c      	movcc	r5, #12
 8002928:	2d00      	cmp	r5, #0
 800292a:	4606      	mov	r6, r0
 800292c:	db01      	blt.n	8002932 <_malloc_r+0x1a>
 800292e:	42a9      	cmp	r1, r5
 8002930:	d903      	bls.n	800293a <_malloc_r+0x22>
 8002932:	230c      	movs	r3, #12
 8002934:	6033      	str	r3, [r6, #0]
 8002936:	2000      	movs	r0, #0
 8002938:	bd70      	pop	{r4, r5, r6, pc}
 800293a:	f000 fb66 	bl	800300a <__malloc_lock>
 800293e:	4a23      	ldr	r2, [pc, #140]	; (80029cc <_malloc_r+0xb4>)
 8002940:	6814      	ldr	r4, [r2, #0]
 8002942:	4621      	mov	r1, r4
 8002944:	b991      	cbnz	r1, 800296c <_malloc_r+0x54>
 8002946:	4c22      	ldr	r4, [pc, #136]	; (80029d0 <_malloc_r+0xb8>)
 8002948:	6823      	ldr	r3, [r4, #0]
 800294a:	b91b      	cbnz	r3, 8002954 <_malloc_r+0x3c>
 800294c:	4630      	mov	r0, r6
 800294e:	f000 fb27 	bl	8002fa0 <_sbrk_r>
 8002952:	6020      	str	r0, [r4, #0]
 8002954:	4629      	mov	r1, r5
 8002956:	4630      	mov	r0, r6
 8002958:	f000 fb22 	bl	8002fa0 <_sbrk_r>
 800295c:	1c43      	adds	r3, r0, #1
 800295e:	d126      	bne.n	80029ae <_malloc_r+0x96>
 8002960:	230c      	movs	r3, #12
 8002962:	6033      	str	r3, [r6, #0]
 8002964:	4630      	mov	r0, r6
 8002966:	f000 fb51 	bl	800300c <__malloc_unlock>
 800296a:	e7e4      	b.n	8002936 <_malloc_r+0x1e>
 800296c:	680b      	ldr	r3, [r1, #0]
 800296e:	1b5b      	subs	r3, r3, r5
 8002970:	d41a      	bmi.n	80029a8 <_malloc_r+0x90>
 8002972:	2b0b      	cmp	r3, #11
 8002974:	d90f      	bls.n	8002996 <_malloc_r+0x7e>
 8002976:	600b      	str	r3, [r1, #0]
 8002978:	50cd      	str	r5, [r1, r3]
 800297a:	18cc      	adds	r4, r1, r3
 800297c:	4630      	mov	r0, r6
 800297e:	f000 fb45 	bl	800300c <__malloc_unlock>
 8002982:	f104 000b 	add.w	r0, r4, #11
 8002986:	1d23      	adds	r3, r4, #4
 8002988:	f020 0007 	bic.w	r0, r0, #7
 800298c:	1ac3      	subs	r3, r0, r3
 800298e:	d01b      	beq.n	80029c8 <_malloc_r+0xb0>
 8002990:	425a      	negs	r2, r3
 8002992:	50e2      	str	r2, [r4, r3]
 8002994:	bd70      	pop	{r4, r5, r6, pc}
 8002996:	428c      	cmp	r4, r1
 8002998:	bf0d      	iteet	eq
 800299a:	6863      	ldreq	r3, [r4, #4]
 800299c:	684b      	ldrne	r3, [r1, #4]
 800299e:	6063      	strne	r3, [r4, #4]
 80029a0:	6013      	streq	r3, [r2, #0]
 80029a2:	bf18      	it	ne
 80029a4:	460c      	movne	r4, r1
 80029a6:	e7e9      	b.n	800297c <_malloc_r+0x64>
 80029a8:	460c      	mov	r4, r1
 80029aa:	6849      	ldr	r1, [r1, #4]
 80029ac:	e7ca      	b.n	8002944 <_malloc_r+0x2c>
 80029ae:	1cc4      	adds	r4, r0, #3
 80029b0:	f024 0403 	bic.w	r4, r4, #3
 80029b4:	42a0      	cmp	r0, r4
 80029b6:	d005      	beq.n	80029c4 <_malloc_r+0xac>
 80029b8:	1a21      	subs	r1, r4, r0
 80029ba:	4630      	mov	r0, r6
 80029bc:	f000 faf0 	bl	8002fa0 <_sbrk_r>
 80029c0:	3001      	adds	r0, #1
 80029c2:	d0cd      	beq.n	8002960 <_malloc_r+0x48>
 80029c4:	6025      	str	r5, [r4, #0]
 80029c6:	e7d9      	b.n	800297c <_malloc_r+0x64>
 80029c8:	bd70      	pop	{r4, r5, r6, pc}
 80029ca:	bf00      	nop
 80029cc:	200000a4 	.word	0x200000a4
 80029d0:	200000a8 	.word	0x200000a8

080029d4 <__ssputs_r>:
 80029d4:	e92d 47f0 	stmdb	sp!, {r4, r5, r6, r7, r8, r9, sl, lr}
 80029d8:	688e      	ldr	r6, [r1, #8]
 80029da:	429e      	cmp	r6, r3
 80029dc:	4682      	mov	sl, r0
 80029de:	460c      	mov	r4, r1
 80029e0:	4691      	mov	r9, r2
 80029e2:	4698      	mov	r8, r3
 80029e4:	d835      	bhi.n	8002a52 <__ssputs_r+0x7e>
 80029e6:	898a      	ldrh	r2, [r1, #12]
 80029e8:	f412 6f90 	tst.w	r2, #1152	; 0x480
 80029ec:	d031      	beq.n	8002a52 <__ssputs_r+0x7e>
 80029ee:	6825      	ldr	r5, [r4, #0]
 80029f0:	6909      	ldr	r1, [r1, #16]
 80029f2:	1a6f      	subs	r7, r5, r1
 80029f4:	6965      	ldr	r5, [r4, #20]
 80029f6:	2302      	movs	r3, #2
 80029f8:	eb05 0545 	add.w	r5, r5, r5, lsl #1
 80029fc:	fb95 f5f3 	sdiv	r5, r5, r3
 8002a00:	f108 0301 	add.w	r3, r8, #1
 8002a04:	443b      	add	r3, r7
 8002a06:	429d      	cmp	r5, r3
 8002a08:	bf38      	it	cc
 8002a0a:	461d      	movcc	r5, r3
 8002a0c:	0553      	lsls	r3, r2, #21
 8002a0e:	d531      	bpl.n	8002a74 <__ssputs_r+0xa0>
 8002a10:	4629      	mov	r1, r5
 8002a12:	f7ff ff81 	bl	8002918 <_malloc_r>
 8002a16:	4606      	mov	r6, r0
 8002a18:	b950      	cbnz	r0, 8002a30 <__ssputs_r+0x5c>
 8002a1a:	230c      	movs	r3, #12
 8002a1c:	f8ca 3000 	str.w	r3, [sl]
 8002a20:	89a3      	ldrh	r3, [r4, #12]
 8002a22:	f043 0340 	orr.w	r3, r3, #64	; 0x40
 8002a26:	81a3      	strh	r3, [r4, #12]
 8002a28:	f04f 30ff 	mov.w	r0, #4294967295	; 0xffffffff
 8002a2c:	e8bd 87f0 	ldmia.w	sp!, {r4, r5, r6, r7, r8, r9, sl, pc}
 8002a30:	463a      	mov	r2, r7
 8002a32:	6921      	ldr	r1, [r4, #16]
 8002a34:	f000 fac4 	bl	8002fc0 <memcpy>
 8002a38:	89a3      	ldrh	r3, [r4, #12]
 8002a3a:	f423 6390 	bic.w	r3, r3, #1152	; 0x480
 8002a3e:	f043 0380 	orr.w	r3, r3, #128	; 0x80
 8002a42:	81a3      	strh	r3, [r4, #12]
 8002a44:	6126      	str	r6, [r4, #16]
 8002a46:	6165      	str	r5, [r4, #20]
 8002a48:	443e      	add	r6, r7
 8002a4a:	1bed      	subs	r5, r5, r7
 8002a4c:	6026      	str	r6, [r4, #0]
 8002a4e:	60a5      	str	r5, [r4, #8]
 8002a50:	4646      	mov	r6, r8
 8002a52:	4546      	cmp	r6, r8
 8002a54:	bf28      	it	cs
 8002a56:	4646      	movcs	r6, r8
 8002a58:	4632      	mov	r2, r6
 8002a5a:	4649      	mov	r1, r9
 8002a5c:	6820      	ldr	r0, [r4, #0]
 8002a5e:	f000 faba 	bl	8002fd6 <memmove>
 8002a62:	68a3      	ldr	r3, [r4, #8]
 8002a64:	1b9b      	subs	r3, r3, r6
 8002a66:	60a3      	str	r3, [r4, #8]
 8002a68:	6823      	ldr	r3, [r4, #0]
 8002a6a:	441e      	add	r6, r3
 8002a6c:	6026      	str	r6, [r4, #0]
 8002a6e:	2000      	movs	r0, #0
 8002a70:	e8bd 87f0 	ldmia.w	sp!, {r4, r5, r6, r7, r8, r9, sl, pc}
 8002a74:	462a      	mov	r2, r5
 8002a76:	f000 faca 	bl	800300e <_realloc_r>
 8002a7a:	4606      	mov	r6, r0
 8002a7c:	2800      	cmp	r0, #0
 8002a7e:	d1e1      	bne.n	8002a44 <__ssputs_r+0x70>
 8002a80:	6921      	ldr	r1, [r4, #16]
 8002a82:	4650      	mov	r0, sl
 8002a84:	f7ff fefa 	bl	800287c <_free_r>
 8002a88:	e7c7      	b.n	8002a1a <__ssputs_r+0x46>
	...

08002a8c <_svfiprintf_r>:
 8002a8c:	e92d 4ff0 	stmdb	sp!, {r4, r5, r6, r7, r8, r9, sl, fp, lr}
 8002a90:	b09d      	sub	sp, #116	; 0x74
 8002a92:	4680      	mov	r8, r0
 8002a94:	9303      	str	r3, [sp, #12]
 8002a96:	898b      	ldrh	r3, [r1, #12]
 8002a98:	061c      	lsls	r4, r3, #24
 8002a9a:	460d      	mov	r5, r1
 8002a9c:	4616      	mov	r6, r2
 8002a9e:	d50f      	bpl.n	8002ac0 <_svfiprintf_r+0x34>
 8002aa0:	690b      	ldr	r3, [r1, #16]
 8002aa2:	b96b      	cbnz	r3, 8002ac0 <_svfiprintf_r+0x34>
 8002aa4:	2140      	movs	r1, #64	; 0x40
 8002aa6:	f7ff ff37 	bl	8002918 <_malloc_r>
 8002aaa:	6028      	str	r0, [r5, #0]
 8002aac:	6128      	str	r0, [r5, #16]
 8002aae:	b928      	cbnz	r0, 8002abc <_svfiprintf_r+0x30>
 8002ab0:	230c      	movs	r3, #12
 8002ab2:	f8c8 3000 	str.w	r3, [r8]
 8002ab6:	f04f 30ff 	mov.w	r0, #4294967295	; 0xffffffff
 8002aba:	e0c5      	b.n	8002c48 <_svfiprintf_r+0x1bc>
 8002abc:	2340      	movs	r3, #64	; 0x40
 8002abe:	616b      	str	r3, [r5, #20]
 8002ac0:	2300      	movs	r3, #0
 8002ac2:	9309      	str	r3, [sp, #36]	; 0x24
 8002ac4:	2320      	movs	r3, #32
 8002ac6:	f88d 3029 	strb.w	r3, [sp, #41]	; 0x29
 8002aca:	2330      	movs	r3, #48	; 0x30
 8002acc:	f88d 302a 	strb.w	r3, [sp, #42]	; 0x2a
 8002ad0:	f04f 0b01 	mov.w	fp, #1
 8002ad4:	4637      	mov	r7, r6
 8002ad6:	463c      	mov	r4, r7
 8002ad8:	f814 3b01 	ldrb.w	r3, [r4], #1
 8002adc:	2b00      	cmp	r3, #0
 8002ade:	d13c      	bne.n	8002b5a <_svfiprintf_r+0xce>
 8002ae0:	ebb7 0a06 	subs.w	sl, r7, r6
 8002ae4:	d00b      	beq.n	8002afe <_svfiprintf_r+0x72>
 8002ae6:	4653      	mov	r3, sl
 8002ae8:	4632      	mov	r2, r6
 8002aea:	4629      	mov	r1, r5
 8002aec:	4640      	mov	r0, r8
 8002aee:	f7ff ff71 	bl	80029d4 <__ssputs_r>
 8002af2:	3001      	adds	r0, #1
 8002af4:	f000 80a3 	beq.w	8002c3e <_svfiprintf_r+0x1b2>
 8002af8:	9b09      	ldr	r3, [sp, #36]	; 0x24
 8002afa:	4453      	add	r3, sl
 8002afc:	9309      	str	r3, [sp, #36]	; 0x24
 8002afe:	783b      	ldrb	r3, [r7, #0]
 8002b00:	2b00      	cmp	r3, #0
 8002b02:	f000 809c 	beq.w	8002c3e <_svfiprintf_r+0x1b2>
 8002b06:	2300      	movs	r3, #0
 8002b08:	f04f 32ff 	mov.w	r2, #4294967295	; 0xffffffff
 8002b0c:	9304      	str	r3, [sp, #16]
 8002b0e:	9307      	str	r3, [sp, #28]
 8002b10:	9205      	str	r2, [sp, #20]
 8002b12:	9306      	str	r3, [sp, #24]
 8002b14:	f88d 3053 	strb.w	r3, [sp, #83]	; 0x53
 8002b18:	931a      	str	r3, [sp, #104]	; 0x68
 8002b1a:	2205      	movs	r2, #5
 8002b1c:	7821      	ldrb	r1, [r4, #0]
 8002b1e:	4850      	ldr	r0, [pc, #320]	; (8002c60 <_svfiprintf_r+0x1d4>)
 8002b20:	f7fd fb76 	bl	8000210 <memchr>
 8002b24:	1c67      	adds	r7, r4, #1
 8002b26:	9b04      	ldr	r3, [sp, #16]
 8002b28:	b9d8      	cbnz	r0, 8002b62 <_svfiprintf_r+0xd6>
 8002b2a:	06d9      	lsls	r1, r3, #27
 8002b2c:	bf44      	itt	mi
 8002b2e:	2220      	movmi	r2, #32
 8002b30:	f88d 2053 	strbmi.w	r2, [sp, #83]	; 0x53
 8002b34:	071a      	lsls	r2, r3, #28
 8002b36:	bf44      	itt	mi
 8002b38:	222b      	movmi	r2, #43	; 0x2b
 8002b3a:	f88d 2053 	strbmi.w	r2, [sp, #83]	; 0x53
 8002b3e:	7822      	ldrb	r2, [r4, #0]
 8002b40:	2a2a      	cmp	r2, #42	; 0x2a
 8002b42:	d016      	beq.n	8002b72 <_svfiprintf_r+0xe6>
 8002b44:	9a07      	ldr	r2, [sp, #28]
 8002b46:	2100      	movs	r1, #0
 8002b48:	200a      	movs	r0, #10
 8002b4a:	4627      	mov	r7, r4
 8002b4c:	3401      	adds	r4, #1
 8002b4e:	783b      	ldrb	r3, [r7, #0]
 8002b50:	3b30      	subs	r3, #48	; 0x30
 8002b52:	2b09      	cmp	r3, #9
 8002b54:	d951      	bls.n	8002bfa <_svfiprintf_r+0x16e>
 8002b56:	b1c9      	cbz	r1, 8002b8c <_svfiprintf_r+0x100>
 8002b58:	e011      	b.n	8002b7e <_svfiprintf_r+0xf2>
 8002b5a:	2b25      	cmp	r3, #37	; 0x25
 8002b5c:	d0c0      	beq.n	8002ae0 <_svfiprintf_r+0x54>
 8002b5e:	4627      	mov	r7, r4
 8002b60:	e7b9      	b.n	8002ad6 <_svfiprintf_r+0x4a>
 8002b62:	4a3f      	ldr	r2, [pc, #252]	; (8002c60 <_svfiprintf_r+0x1d4>)
 8002b64:	1a80      	subs	r0, r0, r2
 8002b66:	fa0b f000 	lsl.w	r0, fp, r0
 8002b6a:	4318      	orrs	r0, r3
 8002b6c:	9004      	str	r0, [sp, #16]
 8002b6e:	463c      	mov	r4, r7
 8002b70:	e7d3      	b.n	8002b1a <_svfiprintf_r+0x8e>
 8002b72:	9a03      	ldr	r2, [sp, #12]
 8002b74:	1d11      	adds	r1, r2, #4
 8002b76:	6812      	ldr	r2, [r2, #0]
 8002b78:	9103      	str	r1, [sp, #12]
 8002b7a:	2a00      	cmp	r2, #0
 8002b7c:	db01      	blt.n	8002b82 <_svfiprintf_r+0xf6>
 8002b7e:	9207      	str	r2, [sp, #28]
 8002b80:	e004      	b.n	8002b8c <_svfiprintf_r+0x100>
 8002b82:	4252      	negs	r2, r2
 8002b84:	f043 0302 	orr.w	r3, r3, #2
 8002b88:	9207      	str	r2, [sp, #28]
 8002b8a:	9304      	str	r3, [sp, #16]
 8002b8c:	783b      	ldrb	r3, [r7, #0]
 8002b8e:	2b2e      	cmp	r3, #46	; 0x2e
 8002b90:	d10e      	bne.n	8002bb0 <_svfiprintf_r+0x124>
 8002b92:	787b      	ldrb	r3, [r7, #1]
 8002b94:	2b2a      	cmp	r3, #42	; 0x2a
 8002b96:	f107 0101 	add.w	r1, r7, #1
 8002b9a:	d132      	bne.n	8002c02 <_svfiprintf_r+0x176>
 8002b9c:	9b03      	ldr	r3, [sp, #12]
 8002b9e:	1d1a      	adds	r2, r3, #4
 8002ba0:	681b      	ldr	r3, [r3, #0]
 8002ba2:	9203      	str	r2, [sp, #12]
 8002ba4:	2b00      	cmp	r3, #0
 8002ba6:	bfb8      	it	lt
 8002ba8:	f04f 33ff 	movlt.w	r3, #4294967295	; 0xffffffff
 8002bac:	3702      	adds	r7, #2
 8002bae:	9305      	str	r3, [sp, #20]
 8002bb0:	4c2c      	ldr	r4, [pc, #176]	; (8002c64 <_svfiprintf_r+0x1d8>)
 8002bb2:	7839      	ldrb	r1, [r7, #0]
 8002bb4:	2203      	movs	r2, #3
 8002bb6:	4620      	mov	r0, r4
 8002bb8:	f7fd fb2a 	bl	8000210 <memchr>
 8002bbc:	b138      	cbz	r0, 8002bce <_svfiprintf_r+0x142>
 8002bbe:	2340      	movs	r3, #64	; 0x40
 8002bc0:	1b00      	subs	r0, r0, r4
 8002bc2:	fa03 f000 	lsl.w	r0, r3, r0
 8002bc6:	9b04      	ldr	r3, [sp, #16]
 8002bc8:	4303      	orrs	r3, r0
 8002bca:	9304      	str	r3, [sp, #16]
 8002bcc:	3701      	adds	r7, #1
 8002bce:	7839      	ldrb	r1, [r7, #0]
 8002bd0:	4825      	ldr	r0, [pc, #148]	; (8002c68 <_svfiprintf_r+0x1dc>)
 8002bd2:	f88d 1028 	strb.w	r1, [sp, #40]	; 0x28
 8002bd6:	2206      	movs	r2, #6
 8002bd8:	1c7e      	adds	r6, r7, #1
 8002bda:	f7fd fb19 	bl	8000210 <memchr>
 8002bde:	2800      	cmp	r0, #0
 8002be0:	d035      	beq.n	8002c4e <_svfiprintf_r+0x1c2>
 8002be2:	4b22      	ldr	r3, [pc, #136]	; (8002c6c <_svfiprintf_r+0x1e0>)
 8002be4:	b9fb      	cbnz	r3, 8002c26 <_svfiprintf_r+0x19a>
 8002be6:	9b03      	ldr	r3, [sp, #12]
 8002be8:	3307      	adds	r3, #7
 8002bea:	f023 0307 	bic.w	r3, r3, #7
 8002bee:	3308      	adds	r3, #8
 8002bf0:	9303      	str	r3, [sp, #12]
 8002bf2:	9b09      	ldr	r3, [sp, #36]	; 0x24
 8002bf4:	444b      	add	r3, r9
 8002bf6:	9309      	str	r3, [sp, #36]	; 0x24
 8002bf8:	e76c      	b.n	8002ad4 <_svfiprintf_r+0x48>
 8002bfa:	fb00 3202 	mla	r2, r0, r2, r3
 8002bfe:	2101      	movs	r1, #1
 8002c00:	e7a3      	b.n	8002b4a <_svfiprintf_r+0xbe>
 8002c02:	2300      	movs	r3, #0
 8002c04:	9305      	str	r3, [sp, #20]
 8002c06:	4618      	mov	r0, r3
 8002c08:	240a      	movs	r4, #10
 8002c0a:	460f      	mov	r7, r1
 8002c0c:	3101      	adds	r1, #1
 8002c0e:	783a      	ldrb	r2, [r7, #0]
 8002c10:	3a30      	subs	r2, #48	; 0x30
 8002c12:	2a09      	cmp	r2, #9
 8002c14:	d903      	bls.n	8002c1e <_svfiprintf_r+0x192>
 8002c16:	2b00      	cmp	r3, #0
 8002c18:	d0ca      	beq.n	8002bb0 <_svfiprintf_r+0x124>
 8002c1a:	9005      	str	r0, [sp, #20]
 8002c1c:	e7c8      	b.n	8002bb0 <_svfiprintf_r+0x124>
 8002c1e:	fb04 2000 	mla	r0, r4, r0, r2
 8002c22:	2301      	movs	r3, #1
 8002c24:	e7f1      	b.n	8002c0a <_svfiprintf_r+0x17e>
 8002c26:	ab03      	add	r3, sp, #12
 8002c28:	9300      	str	r3, [sp, #0]
 8002c2a:	462a      	mov	r2, r5
 8002c2c:	4b10      	ldr	r3, [pc, #64]	; (8002c70 <_svfiprintf_r+0x1e4>)
 8002c2e:	a904      	add	r1, sp, #16
 8002c30:	4640      	mov	r0, r8
 8002c32:	f3af 8000 	nop.w
 8002c36:	f1b0 3fff 	cmp.w	r0, #4294967295	; 0xffffffff
 8002c3a:	4681      	mov	r9, r0
 8002c3c:	d1d9      	bne.n	8002bf2 <_svfiprintf_r+0x166>
 8002c3e:	89ab      	ldrh	r3, [r5, #12]
 8002c40:	065b      	lsls	r3, r3, #25
 8002c42:	f53f af38 	bmi.w	8002ab6 <_svfiprintf_r+0x2a>
 8002c46:	9809      	ldr	r0, [sp, #36]	; 0x24
 8002c48:	b01d      	add	sp, #116	; 0x74
 8002c4a:	e8bd 8ff0 	ldmia.w	sp!, {r4, r5, r6, r7, r8, r9, sl, fp, pc}
 8002c4e:	ab03      	add	r3, sp, #12
 8002c50:	9300      	str	r3, [sp, #0]
 8002c52:	462a      	mov	r2, r5
 8002c54:	4b06      	ldr	r3, [pc, #24]	; (8002c70 <_svfiprintf_r+0x1e4>)
 8002c56:	a904      	add	r1, sp, #16
 8002c58:	4640      	mov	r0, r8
 8002c5a:	f000 f881 	bl	8002d60 <_printf_i>
 8002c5e:	e7ea      	b.n	8002c36 <_svfiprintf_r+0x1aa>
 8002c60:	08003247 	.word	0x08003247
 8002c64:	0800324d 	.word	0x0800324d
 8002c68:	08003251 	.word	0x08003251
 8002c6c:	00000000 	.word	0x00000000
 8002c70:	080029d5 	.word	0x080029d5

08002c74 <_printf_common>:
 8002c74:	e92d 47f0 	stmdb	sp!, {r4, r5, r6, r7, r8, r9, sl, lr}
 8002c78:	4691      	mov	r9, r2
 8002c7a:	461f      	mov	r7, r3
 8002c7c:	688a      	ldr	r2, [r1, #8]
 8002c7e:	690b      	ldr	r3, [r1, #16]
 8002c80:	f8dd 8020 	ldr.w	r8, [sp, #32]
 8002c84:	4293      	cmp	r3, r2
 8002c86:	bfb8      	it	lt
 8002c88:	4613      	movlt	r3, r2
 8002c8a:	f8c9 3000 	str.w	r3, [r9]
 8002c8e:	f891 2043 	ldrb.w	r2, [r1, #67]	; 0x43
 8002c92:	4606      	mov	r6, r0
 8002c94:	460c      	mov	r4, r1
 8002c96:	b112      	cbz	r2, 8002c9e <_printf_common+0x2a>
 8002c98:	3301      	adds	r3, #1
 8002c9a:	f8c9 3000 	str.w	r3, [r9]
 8002c9e:	6823      	ldr	r3, [r4, #0]
 8002ca0:	0699      	lsls	r1, r3, #26
 8002ca2:	bf42      	ittt	mi
 8002ca4:	f8d9 3000 	ldrmi.w	r3, [r9]
 8002ca8:	3302      	addmi	r3, #2
 8002caa:	f8c9 3000 	strmi.w	r3, [r9]
 8002cae:	6825      	ldr	r5, [r4, #0]
 8002cb0:	f015 0506 	ands.w	r5, r5, #6
 8002cb4:	d107      	bne.n	8002cc6 <_printf_common+0x52>
 8002cb6:	f104 0a19 	add.w	sl, r4, #25
 8002cba:	68e3      	ldr	r3, [r4, #12]
 8002cbc:	f8d9 2000 	ldr.w	r2, [r9]
 8002cc0:	1a9b      	subs	r3, r3, r2
 8002cc2:	429d      	cmp	r5, r3
 8002cc4:	db29      	blt.n	8002d1a <_printf_common+0xa6>
 8002cc6:	f894 3043 	ldrb.w	r3, [r4, #67]	; 0x43
 8002cca:	6822      	ldr	r2, [r4, #0]
 8002ccc:	3300      	adds	r3, #0
 8002cce:	bf18      	it	ne
 8002cd0:	2301      	movne	r3, #1
 8002cd2:	0692      	lsls	r2, r2, #26
 8002cd4:	d42e      	bmi.n	8002d34 <_printf_common+0xc0>
 8002cd6:	f104 0243 	add.w	r2, r4, #67	; 0x43
 8002cda:	4639      	mov	r1, r7
 8002cdc:	4630      	mov	r0, r6
 8002cde:	47c0      	blx	r8
 8002ce0:	3001      	adds	r0, #1
 8002ce2:	d021      	beq.n	8002d28 <_printf_common+0xb4>
 8002ce4:	6823      	ldr	r3, [r4, #0]
 8002ce6:	68e5      	ldr	r5, [r4, #12]
 8002ce8:	f8d9 2000 	ldr.w	r2, [r9]
 8002cec:	f003 0306 	and.w	r3, r3, #6
 8002cf0:	2b04      	cmp	r3, #4
 8002cf2:	bf08      	it	eq
 8002cf4:	1aad      	subeq	r5, r5, r2
 8002cf6:	68a3      	ldr	r3, [r4, #8]
 8002cf8:	6922      	ldr	r2, [r4, #16]
 8002cfa:	bf0c      	ite	eq
 8002cfc:	ea25 75e5 	biceq.w	r5, r5, r5, asr #31
 8002d00:	2500      	movne	r5, #0
 8002d02:	4293      	cmp	r3, r2
 8002d04:	bfc4      	itt	gt
 8002d06:	1a9b      	subgt	r3, r3, r2
 8002d08:	18ed      	addgt	r5, r5, r3
 8002d0a:	f04f 0900 	mov.w	r9, #0
 8002d0e:	341a      	adds	r4, #26
 8002d10:	454d      	cmp	r5, r9
 8002d12:	d11b      	bne.n	8002d4c <_printf_common+0xd8>
 8002d14:	2000      	movs	r0, #0
 8002d16:	e8bd 87f0 	ldmia.w	sp!, {r4, r5, r6, r7, r8, r9, sl, pc}
 8002d1a:	2301      	movs	r3, #1
 8002d1c:	4652      	mov	r2, sl
 8002d1e:	4639      	mov	r1, r7
 8002d20:	4630      	mov	r0, r6
 8002d22:	47c0      	blx	r8
 8002d24:	3001      	adds	r0, #1
 8002d26:	d103      	bne.n	8002d30 <_printf_common+0xbc>
 8002d28:	f04f 30ff 	mov.w	r0, #4294967295	; 0xffffffff
 8002d2c:	e8bd 87f0 	ldmia.w	sp!, {r4, r5, r6, r7, r8, r9, sl, pc}
 8002d30:	3501      	adds	r5, #1
 8002d32:	e7c2      	b.n	8002cba <_printf_common+0x46>
 8002d34:	18e1      	adds	r1, r4, r3
 8002d36:	1c5a      	adds	r2, r3, #1
 8002d38:	2030      	movs	r0, #48	; 0x30
 8002d3a:	f881 0043 	strb.w	r0, [r1, #67]	; 0x43
 8002d3e:	4422      	add	r2, r4
 8002d40:	f894 1045 	ldrb.w	r1, [r4, #69]	; 0x45
 8002d44:	f882 1043 	strb.w	r1, [r2, #67]	; 0x43
 8002d48:	3302      	adds	r3, #2
 8002d4a:	e7c4      	b.n	8002cd6 <_printf_common+0x62>
 8002d4c:	2301      	movs	r3, #1
 8002d4e:	4622      	mov	r2, r4
 8002d50:	4639      	mov	r1, r7
 8002d52:	4630      	mov	r0, r6
 8002d54:	47c0      	blx	r8
 8002d56:	3001      	adds	r0, #1
 8002d58:	d0e6      	beq.n	8002d28 <_printf_common+0xb4>
 8002d5a:	f109 0901 	add.w	r9, r9, #1
 8002d5e:	e7d7      	b.n	8002d10 <_printf_common+0x9c>

08002d60 <_printf_i>:
 8002d60:	e92d 43f0 	stmdb	sp!, {r4, r5, r6, r7, r8, r9, lr}
 8002d64:	4617      	mov	r7, r2
 8002d66:	7e0a      	ldrb	r2, [r1, #24]
 8002d68:	b085      	sub	sp, #20
 8002d6a:	2a6e      	cmp	r2, #110	; 0x6e
 8002d6c:	4698      	mov	r8, r3
 8002d6e:	4606      	mov	r6, r0
 8002d70:	460c      	mov	r4, r1
 8002d72:	9b0c      	ldr	r3, [sp, #48]	; 0x30
 8002d74:	f101 0e43 	add.w	lr, r1, #67	; 0x43
 8002d78:	f000 80bc 	beq.w	8002ef4 <_printf_i+0x194>
 8002d7c:	d81a      	bhi.n	8002db4 <_printf_i+0x54>
 8002d7e:	2a63      	cmp	r2, #99	; 0x63
 8002d80:	d02e      	beq.n	8002de0 <_printf_i+0x80>
 8002d82:	d80a      	bhi.n	8002d9a <_printf_i+0x3a>
 8002d84:	2a00      	cmp	r2, #0
 8002d86:	f000 80c8 	beq.w	8002f1a <_printf_i+0x1ba>
 8002d8a:	2a58      	cmp	r2, #88	; 0x58
 8002d8c:	f000 808a 	beq.w	8002ea4 <_printf_i+0x144>
 8002d90:	f104 0542 	add.w	r5, r4, #66	; 0x42
 8002d94:	f884 2042 	strb.w	r2, [r4, #66]	; 0x42
 8002d98:	e02a      	b.n	8002df0 <_printf_i+0x90>
 8002d9a:	2a64      	cmp	r2, #100	; 0x64
 8002d9c:	d001      	beq.n	8002da2 <_printf_i+0x42>
 8002d9e:	2a69      	cmp	r2, #105	; 0x69
 8002da0:	d1f6      	bne.n	8002d90 <_printf_i+0x30>
 8002da2:	6821      	ldr	r1, [r4, #0]
 8002da4:	681a      	ldr	r2, [r3, #0]
 8002da6:	f011 0f80 	tst.w	r1, #128	; 0x80
 8002daa:	d023      	beq.n	8002df4 <_printf_i+0x94>
 8002dac:	1d11      	adds	r1, r2, #4
 8002dae:	6019      	str	r1, [r3, #0]
 8002db0:	6813      	ldr	r3, [r2, #0]
 8002db2:	e027      	b.n	8002e04 <_printf_i+0xa4>
 8002db4:	2a73      	cmp	r2, #115	; 0x73
 8002db6:	f000 80b4 	beq.w	8002f22 <_printf_i+0x1c2>
 8002dba:	d808      	bhi.n	8002dce <_printf_i+0x6e>
 8002dbc:	2a6f      	cmp	r2, #111	; 0x6f
 8002dbe:	d02a      	beq.n	8002e16 <_printf_i+0xb6>
 8002dc0:	2a70      	cmp	r2, #112	; 0x70
 8002dc2:	d1e5      	bne.n	8002d90 <_printf_i+0x30>
 8002dc4:	680a      	ldr	r2, [r1, #0]
 8002dc6:	f042 0220 	orr.w	r2, r2, #32
 8002dca:	600a      	str	r2, [r1, #0]
 8002dcc:	e003      	b.n	8002dd6 <_printf_i+0x76>
 8002dce:	2a75      	cmp	r2, #117	; 0x75
 8002dd0:	d021      	beq.n	8002e16 <_printf_i+0xb6>
 8002dd2:	2a78      	cmp	r2, #120	; 0x78
 8002dd4:	d1dc      	bne.n	8002d90 <_printf_i+0x30>
 8002dd6:	2278      	movs	r2, #120	; 0x78
 8002dd8:	f884 2045 	strb.w	r2, [r4, #69]	; 0x45
 8002ddc:	496e      	ldr	r1, [pc, #440]	; (8002f98 <_printf_i+0x238>)
 8002dde:	e064      	b.n	8002eaa <_printf_i+0x14a>
 8002de0:	681a      	ldr	r2, [r3, #0]
 8002de2:	f101 0542 	add.w	r5, r1, #66	; 0x42
 8002de6:	1d11      	adds	r1, r2, #4
 8002de8:	6019      	str	r1, [r3, #0]
 8002dea:	6813      	ldr	r3, [r2, #0]
 8002dec:	f884 3042 	strb.w	r3, [r4, #66]	; 0x42
 8002df0:	2301      	movs	r3, #1
 8002df2:	e0a3      	b.n	8002f3c <_printf_i+0x1dc>
 8002df4:	f011 0f40 	tst.w	r1, #64	; 0x40
 8002df8:	f102 0104 	add.w	r1, r2, #4
 8002dfc:	6019      	str	r1, [r3, #0]
 8002dfe:	d0d7      	beq.n	8002db0 <_printf_i+0x50>
 8002e00:	f9b2 3000 	ldrsh.w	r3, [r2]
 8002e04:	2b00      	cmp	r3, #0
 8002e06:	da03      	bge.n	8002e10 <_printf_i+0xb0>
 8002e08:	222d      	movs	r2, #45	; 0x2d
 8002e0a:	425b      	negs	r3, r3
 8002e0c:	f884 2043 	strb.w	r2, [r4, #67]	; 0x43
 8002e10:	4962      	ldr	r1, [pc, #392]	; (8002f9c <_printf_i+0x23c>)
 8002e12:	220a      	movs	r2, #10
 8002e14:	e017      	b.n	8002e46 <_printf_i+0xe6>
 8002e16:	6820      	ldr	r0, [r4, #0]
 8002e18:	6819      	ldr	r1, [r3, #0]
 8002e1a:	f010 0f80 	tst.w	r0, #128	; 0x80
 8002e1e:	d003      	beq.n	8002e28 <_printf_i+0xc8>
 8002e20:	1d08      	adds	r0, r1, #4
 8002e22:	6018      	str	r0, [r3, #0]
 8002e24:	680b      	ldr	r3, [r1, #0]
 8002e26:	e006      	b.n	8002e36 <_printf_i+0xd6>
 8002e28:	f010 0f40 	tst.w	r0, #64	; 0x40
 8002e2c:	f101 0004 	add.w	r0, r1, #4
 8002e30:	6018      	str	r0, [r3, #0]
 8002e32:	d0f7      	beq.n	8002e24 <_printf_i+0xc4>
 8002e34:	880b      	ldrh	r3, [r1, #0]
 8002e36:	4959      	ldr	r1, [pc, #356]	; (8002f9c <_printf_i+0x23c>)
 8002e38:	2a6f      	cmp	r2, #111	; 0x6f
 8002e3a:	bf14      	ite	ne
 8002e3c:	220a      	movne	r2, #10
 8002e3e:	2208      	moveq	r2, #8
 8002e40:	2000      	movs	r0, #0
 8002e42:	f884 0043 	strb.w	r0, [r4, #67]	; 0x43
 8002e46:	6865      	ldr	r5, [r4, #4]
 8002e48:	60a5      	str	r5, [r4, #8]
 8002e4a:	2d00      	cmp	r5, #0
 8002e4c:	f2c0 809c 	blt.w	8002f88 <_printf_i+0x228>
 8002e50:	6820      	ldr	r0, [r4, #0]
 8002e52:	f020 0004 	bic.w	r0, r0, #4
 8002e56:	6020      	str	r0, [r4, #0]
 8002e58:	2b00      	cmp	r3, #0
 8002e5a:	d13f      	bne.n	8002edc <_printf_i+0x17c>
 8002e5c:	2d00      	cmp	r5, #0
 8002e5e:	f040 8095 	bne.w	8002f8c <_printf_i+0x22c>
 8002e62:	4675      	mov	r5, lr
 8002e64:	2a08      	cmp	r2, #8
 8002e66:	d10b      	bne.n	8002e80 <_printf_i+0x120>
 8002e68:	6823      	ldr	r3, [r4, #0]
 8002e6a:	07da      	lsls	r2, r3, #31
 8002e6c:	d508      	bpl.n	8002e80 <_printf_i+0x120>
 8002e6e:	6923      	ldr	r3, [r4, #16]
 8002e70:	6862      	ldr	r2, [r4, #4]
 8002e72:	429a      	cmp	r2, r3
 8002e74:	bfde      	ittt	le
 8002e76:	2330      	movle	r3, #48	; 0x30
 8002e78:	f805 3c01 	strble.w	r3, [r5, #-1]
 8002e7c:	f105 35ff 	addle.w	r5, r5, #4294967295	; 0xffffffff
 8002e80:	ebae 0305 	sub.w	r3, lr, r5
 8002e84:	6123      	str	r3, [r4, #16]
 8002e86:	f8cd 8000 	str.w	r8, [sp]
 8002e8a:	463b      	mov	r3, r7
 8002e8c:	aa03      	add	r2, sp, #12
 8002e8e:	4621      	mov	r1, r4
 8002e90:	4630      	mov	r0, r6
 8002e92:	f7ff feef 	bl	8002c74 <_printf_common>
 8002e96:	3001      	adds	r0, #1
 8002e98:	d155      	bne.n	8002f46 <_printf_i+0x1e6>
 8002e9a:	f04f 30ff 	mov.w	r0, #4294967295	; 0xffffffff
 8002e9e:	b005      	add	sp, #20
 8002ea0:	e8bd 83f0 	ldmia.w	sp!, {r4, r5, r6, r7, r8, r9, pc}
 8002ea4:	f881 2045 	strb.w	r2, [r1, #69]	; 0x45
 8002ea8:	493c      	ldr	r1, [pc, #240]	; (8002f9c <_printf_i+0x23c>)
 8002eaa:	6822      	ldr	r2, [r4, #0]
 8002eac:	6818      	ldr	r0, [r3, #0]
 8002eae:	f012 0f80 	tst.w	r2, #128	; 0x80
 8002eb2:	f100 0504 	add.w	r5, r0, #4
 8002eb6:	601d      	str	r5, [r3, #0]
 8002eb8:	d001      	beq.n	8002ebe <_printf_i+0x15e>
 8002eba:	6803      	ldr	r3, [r0, #0]
 8002ebc:	e002      	b.n	8002ec4 <_printf_i+0x164>
 8002ebe:	0655      	lsls	r5, r2, #25
 8002ec0:	d5fb      	bpl.n	8002eba <_printf_i+0x15a>
 8002ec2:	8803      	ldrh	r3, [r0, #0]
 8002ec4:	07d0      	lsls	r0, r2, #31
 8002ec6:	bf44      	itt	mi
 8002ec8:	f042 0220 	orrmi.w	r2, r2, #32
 8002ecc:	6022      	strmi	r2, [r4, #0]
 8002ece:	b91b      	cbnz	r3, 8002ed8 <_printf_i+0x178>
 8002ed0:	6822      	ldr	r2, [r4, #0]
 8002ed2:	f022 0220 	bic.w	r2, r2, #32
 8002ed6:	6022      	str	r2, [r4, #0]
 8002ed8:	2210      	movs	r2, #16
 8002eda:	e7b1      	b.n	8002e40 <_printf_i+0xe0>
 8002edc:	4675      	mov	r5, lr
 8002ede:	fbb3 f0f2 	udiv	r0, r3, r2
 8002ee2:	fb02 3310 	mls	r3, r2, r0, r3
 8002ee6:	5ccb      	ldrb	r3, [r1, r3]
 8002ee8:	f805 3d01 	strb.w	r3, [r5, #-1]!
 8002eec:	4603      	mov	r3, r0
 8002eee:	2800      	cmp	r0, #0
 8002ef0:	d1f5      	bne.n	8002ede <_printf_i+0x17e>
 8002ef2:	e7b7      	b.n	8002e64 <_printf_i+0x104>
 8002ef4:	6808      	ldr	r0, [r1, #0]
 8002ef6:	681a      	ldr	r2, [r3, #0]
 8002ef8:	6949      	ldr	r1, [r1, #20]
 8002efa:	f010 0f80 	tst.w	r0, #128	; 0x80
 8002efe:	d004      	beq.n	8002f0a <_printf_i+0x1aa>
 8002f00:	1d10      	adds	r0, r2, #4
 8002f02:	6018      	str	r0, [r3, #0]
 8002f04:	6813      	ldr	r3, [r2, #0]
 8002f06:	6019      	str	r1, [r3, #0]
 8002f08:	e007      	b.n	8002f1a <_printf_i+0x1ba>
 8002f0a:	f010 0f40 	tst.w	r0, #64	; 0x40
 8002f0e:	f102 0004 	add.w	r0, r2, #4
 8002f12:	6018      	str	r0, [r3, #0]
 8002f14:	6813      	ldr	r3, [r2, #0]
 8002f16:	d0f6      	beq.n	8002f06 <_printf_i+0x1a6>
 8002f18:	8019      	strh	r1, [r3, #0]
 8002f1a:	2300      	movs	r3, #0
 8002f1c:	6123      	str	r3, [r4, #16]
 8002f1e:	4675      	mov	r5, lr
 8002f20:	e7b1      	b.n	8002e86 <_printf_i+0x126>
 8002f22:	681a      	ldr	r2, [r3, #0]
 8002f24:	1d11      	adds	r1, r2, #4
 8002f26:	6019      	str	r1, [r3, #0]
 8002f28:	6815      	ldr	r5, [r2, #0]
 8002f2a:	6862      	ldr	r2, [r4, #4]
 8002f2c:	2100      	movs	r1, #0
 8002f2e:	4628      	mov	r0, r5
 8002f30:	f7fd f96e 	bl	8000210 <memchr>
 8002f34:	b108      	cbz	r0, 8002f3a <_printf_i+0x1da>
 8002f36:	1b40      	subs	r0, r0, r5
 8002f38:	6060      	str	r0, [r4, #4]
 8002f3a:	6863      	ldr	r3, [r4, #4]
 8002f3c:	6123      	str	r3, [r4, #16]
 8002f3e:	2300      	movs	r3, #0
 8002f40:	f884 3043 	strb.w	r3, [r4, #67]	; 0x43
 8002f44:	e79f      	b.n	8002e86 <_printf_i+0x126>
 8002f46:	6923      	ldr	r3, [r4, #16]
 8002f48:	462a      	mov	r2, r5
 8002f4a:	4639      	mov	r1, r7
 8002f4c:	4630      	mov	r0, r6
 8002f4e:	47c0      	blx	r8
 8002f50:	3001      	adds	r0, #1
 8002f52:	d0a2      	beq.n	8002e9a <_printf_i+0x13a>
 8002f54:	6823      	ldr	r3, [r4, #0]
 8002f56:	079b      	lsls	r3, r3, #30
 8002f58:	d507      	bpl.n	8002f6a <_printf_i+0x20a>
 8002f5a:	2500      	movs	r5, #0
 8002f5c:	f104 0919 	add.w	r9, r4, #25
 8002f60:	68e3      	ldr	r3, [r4, #12]
 8002f62:	9a03      	ldr	r2, [sp, #12]
 8002f64:	1a9b      	subs	r3, r3, r2
 8002f66:	429d      	cmp	r5, r3
 8002f68:	db05      	blt.n	8002f76 <_printf_i+0x216>
 8002f6a:	68e0      	ldr	r0, [r4, #12]
 8002f6c:	9b03      	ldr	r3, [sp, #12]
 8002f6e:	4298      	cmp	r0, r3
 8002f70:	bfb8      	it	lt
 8002f72:	4618      	movlt	r0, r3
 8002f74:	e793      	b.n	8002e9e <_printf_i+0x13e>
 8002f76:	2301      	movs	r3, #1
 8002f78:	464a      	mov	r2, r9
 8002f7a:	4639      	mov	r1, r7
 8002f7c:	4630      	mov	r0, r6
 8002f7e:	47c0      	blx	r8
 8002f80:	3001      	adds	r0, #1
 8002f82:	d08a      	beq.n	8002e9a <_printf_i+0x13a>
 8002f84:	3501      	adds	r5, #1
 8002f86:	e7eb      	b.n	8002f60 <_printf_i+0x200>
 8002f88:	2b00      	cmp	r3, #0
 8002f8a:	d1a7      	bne.n	8002edc <_printf_i+0x17c>
 8002f8c:	780b      	ldrb	r3, [r1, #0]
 8002f8e:	f884 3042 	strb.w	r3, [r4, #66]	; 0x42
 8002f92:	f104 0542 	add.w	r5, r4, #66	; 0x42
 8002f96:	e765      	b.n	8002e64 <_printf_i+0x104>
 8002f98:	08003269 	.word	0x08003269
 8002f9c:	08003258 	.word	0x08003258

08002fa0 <_sbrk_r>:
 8002fa0:	b538      	push	{r3, r4, r5, lr}
 8002fa2:	4c06      	ldr	r4, [pc, #24]	; (8002fbc <_sbrk_r+0x1c>)
 8002fa4:	2300      	movs	r3, #0
 8002fa6:	4605      	mov	r5, r0
 8002fa8:	4608      	mov	r0, r1
 8002faa:	6023      	str	r3, [r4, #0]
 8002fac:	f7ff fbaa 	bl	8002704 <_sbrk>
 8002fb0:	1c43      	adds	r3, r0, #1
 8002fb2:	d102      	bne.n	8002fba <_sbrk_r+0x1a>
 8002fb4:	6823      	ldr	r3, [r4, #0]
 8002fb6:	b103      	cbz	r3, 8002fba <_sbrk_r+0x1a>
 8002fb8:	602b      	str	r3, [r5, #0]
 8002fba:	bd38      	pop	{r3, r4, r5, pc}
 8002fbc:	200001c4 	.word	0x200001c4

08002fc0 <memcpy>:
 8002fc0:	b510      	push	{r4, lr}
 8002fc2:	1e43      	subs	r3, r0, #1
 8002fc4:	440a      	add	r2, r1
 8002fc6:	4291      	cmp	r1, r2
 8002fc8:	d100      	bne.n	8002fcc <memcpy+0xc>
 8002fca:	bd10      	pop	{r4, pc}
 8002fcc:	f811 4b01 	ldrb.w	r4, [r1], #1
 8002fd0:	f803 4f01 	strb.w	r4, [r3, #1]!
 8002fd4:	e7f7      	b.n	8002fc6 <memcpy+0x6>

08002fd6 <memmove>:
 8002fd6:	4288      	cmp	r0, r1
 8002fd8:	b510      	push	{r4, lr}
 8002fda:	eb01 0302 	add.w	r3, r1, r2
 8002fde:	d803      	bhi.n	8002fe8 <memmove+0x12>
 8002fe0:	1e42      	subs	r2, r0, #1
 8002fe2:	4299      	cmp	r1, r3
 8002fe4:	d10c      	bne.n	8003000 <memmove+0x2a>
 8002fe6:	bd10      	pop	{r4, pc}
 8002fe8:	4298      	cmp	r0, r3
 8002fea:	d2f9      	bcs.n	8002fe0 <memmove+0xa>
 8002fec:	1881      	adds	r1, r0, r2
 8002fee:	1ad2      	subs	r2, r2, r3
 8002ff0:	42d3      	cmn	r3, r2
 8002ff2:	d100      	bne.n	8002ff6 <memmove+0x20>
 8002ff4:	bd10      	pop	{r4, pc}
 8002ff6:	f813 4d01 	ldrb.w	r4, [r3, #-1]!
 8002ffa:	f801 4d01 	strb.w	r4, [r1, #-1]!
 8002ffe:	e7f7      	b.n	8002ff0 <memmove+0x1a>
 8003000:	f811 4b01 	ldrb.w	r4, [r1], #1
 8003004:	f802 4f01 	strb.w	r4, [r2, #1]!
 8003008:	e7eb      	b.n	8002fe2 <memmove+0xc>

0800300a <__malloc_lock>:
 800300a:	4770      	bx	lr

0800300c <__malloc_unlock>:
 800300c:	4770      	bx	lr

0800300e <_realloc_r>:
 800300e:	b5f8      	push	{r3, r4, r5, r6, r7, lr}
 8003010:	4607      	mov	r7, r0
 8003012:	4614      	mov	r4, r2
 8003014:	460e      	mov	r6, r1
 8003016:	b921      	cbnz	r1, 8003022 <_realloc_r+0x14>
 8003018:	4611      	mov	r1, r2
 800301a:	e8bd 40f8 	ldmia.w	sp!, {r3, r4, r5, r6, r7, lr}
 800301e:	f7ff bc7b 	b.w	8002918 <_malloc_r>
 8003022:	b922      	cbnz	r2, 800302e <_realloc_r+0x20>
 8003024:	f7ff fc2a 	bl	800287c <_free_r>
 8003028:	4625      	mov	r5, r4
 800302a:	4628      	mov	r0, r5
 800302c:	bdf8      	pop	{r3, r4, r5, r6, r7, pc}
 800302e:	f000 f814 	bl	800305a <_malloc_usable_size_r>
 8003032:	4284      	cmp	r4, r0
 8003034:	d90f      	bls.n	8003056 <_realloc_r+0x48>
 8003036:	4621      	mov	r1, r4
 8003038:	4638      	mov	r0, r7
 800303a:	f7ff fc6d 	bl	8002918 <_malloc_r>
 800303e:	4605      	mov	r5, r0
 8003040:	2800      	cmp	r0, #0
 8003042:	d0f2      	beq.n	800302a <_realloc_r+0x1c>
 8003044:	4631      	mov	r1, r6
 8003046:	4622      	mov	r2, r4
 8003048:	f7ff ffba 	bl	8002fc0 <memcpy>
 800304c:	4631      	mov	r1, r6
 800304e:	4638      	mov	r0, r7
 8003050:	f7ff fc14 	bl	800287c <_free_r>
 8003054:	e7e9      	b.n	800302a <_realloc_r+0x1c>
 8003056:	4635      	mov	r5, r6
 8003058:	e7e7      	b.n	800302a <_realloc_r+0x1c>

0800305a <_malloc_usable_size_r>:
 800305a:	f851 0c04 	ldr.w	r0, [r1, #-4]
 800305e:	2800      	cmp	r0, #0
 8003060:	f1a0 0004 	sub.w	r0, r0, #4
 8003064:	bfbc      	itt	lt
 8003066:	580b      	ldrlt	r3, [r1, r0]
 8003068:	18c0      	addlt	r0, r0, r3
 800306a:	4770      	bx	lr

0800306c <_init>:
 800306c:	b5f8      	push	{r3, r4, r5, r6, r7, lr}
 800306e:	bf00      	nop
 8003070:	bcf8      	pop	{r3, r4, r5, r6, r7}
 8003072:	bc08      	pop	{r3}
 8003074:	469e      	mov	lr, r3
 8003076:	4770      	bx	lr

08003078 <_fini>:
 8003078:	b5f8      	push	{r3, r4, r5, r6, r7, lr}
 800307a:	bf00      	nop
 800307c:	bcf8      	pop	{r3, r4, r5, r6, r7}
 800307e:	bc08      	pop	{r3}
 8003080:	469e      	mov	lr, r3
 8003082:	4770      	bx	lr
